
main:	file format elf64-littleaarch64

Disassembly of section .interp:

0000000000000270 <.interp>:
     270: 7379732f     	<unknown>
     274: 2f6d6574     	<unknown>
     278: 2f6e6962     	umlsl	v2.4s, v11.4h, v14.h[6]
     27c: 6b6e696c     	<unknown>
     280: 34367265     	cbz	w5, 0x6d0cc
     284: 00           	<unknown>

Disassembly of section .note.android.ident:

0000000000000288 <.note.android.ident>:
     288: 00000008     	udf	#0x8
     28c: 00000084     	udf	#0x84
     290: 00000001     	udf	#0x1
     294: 72646e41     	<unknown>
     298: 0064696f     	<unknown>
     29c: 00000018     	udf	#0x18
     2a0: 00393272     	<unknown>
		...
     2e0: 30323431     	adr	x17, 0x64965
     2e4: 35363836     	cbnz	w22, 0x6c9e8
		...

Disassembly of section .dynsym:

0000000000000320 <.dynsym>:
		...
     338: 00000001     	udf	#0x1
     33c: 00000012     	udf	#0x12
		...
     350: 0000000d     	udf	#0xd
     354: 00000012     	udf	#0x12
		...
     368: 0000001a     	udf	#0x1a
     36c: 00000012     	udf	#0x12
		...
     380: 0000002c     	udf	#0x2c
     384: 00000012     	udf	#0x12
		...
     398: 00000041     	udf	#0x41
     39c: 00000012     	udf	#0x12
		...
     3b0: 00000053     	udf	#0x53
     3b4: 00000012     	udf	#0x12
		...
     3c8: 00000063     	udf	#0x63
     3cc: 00000012     	udf	#0x12
		...
     3e0: 0000007c     	udf	#0x7c
     3e4: 00000012     	udf	#0x12
		...
     3f8: 00000090     	udf	#0x90
     3fc: 00000012     	udf	#0x12
		...
     410: 0000009c     	udf	#0x9c
     414: 00000012     	udf	#0x12
		...
     428: 000000dd     	udf	#0xdd
     42c: 00000012     	udf	#0x12
		...
     440: 0000011b     	udf	#0x11b
     444: 00000012     	udf	#0x12
		...
     458: 00000156     	udf	#0x156
     45c: 00000012     	udf	#0x12
		...
     470: 00000166     	udf	#0x166
     474: 00000012     	udf	#0x12
		...
     488: 0000016c     	udf	#0x16c
     48c: 00000012     	udf	#0x12
		...
     4a0: 00000174     	udf	#0x174
     4a4: 00000012     	udf	#0x12
		...
     4b8: 00000194     	udf	#0x194
     4bc: 00000012     	udf	#0x12
		...
     4d0: 000001ac     	udf	#0x1ac
     4d4: 00000012     	udf	#0x12
		...
     4e8: 000001d5     	udf	#0x1d5
     4ec: 00000012     	udf	#0x12
		...
     500: 000001f3     	udf	#0x1f3
     504: 00000012     	udf	#0x12
		...
     518: 000001fa     	udf	#0x1fa
     51c: 00000012     	udf	#0x12
		...
     530: 00000233     	udf	#0x233
     534: 00000012     	udf	#0x12
		...
     548: 0000026e     	udf	#0x26e
     54c: 00000011     	udf	#0x11
		...
     560: 00000281     	udf	#0x281
     564: 00000011     	udf	#0x11
		...
     578: 00000292     	udf	#0x292
     57c: 00000011     	udf	#0x11
		...
     590: 000002a3     	udf	#0x2a3
     594: 00000011     	udf	#0x11
		...
     5a8: 000002bd     	udf	#0x2bd
     5ac: 00000012     	udf	#0x12
		...
     5c0: 000002cc     	udf	#0x2cc
     5c4: 00000012     	udf	#0x12
		...

Disassembly of section .gnu.version:

00000000000005d8 <.gnu.version>:
     5d8: 00020000     	<unknown>
     5dc: 00020002     	<unknown>
     5e0: 00010001     	<unknown>
     5e4: 00010001     	<unknown>
     5e8: 00010001     	<unknown>
     5ec: 00010001     	<unknown>
     5f0: 00010001     	<unknown>
     5f4: 00010001     	<unknown>
     5f8: 00010001     	<unknown>
     5fc: 00010001     	<unknown>
     600: 00010002     	<unknown>
     604: 00010001     	<unknown>
     608: 00010001     	<unknown>
     60c: 00030001     	<unknown>
     610: 02 00        	<unknown>

Disassembly of section .gnu.version_r:

0000000000000614 <.gnu.version_r>:
     614: 00020001     	<unknown>
     618: 000002d3     	udf	#0x2d3
     61c: 00000010     	udf	#0x10
     620: 00000000     	udf	#0x0
     624: 00050d63     	<unknown>
     628: 00020000     	<unknown>
     62c: 000002db     	udf	#0x2db
     630: 00000010     	udf	#0x10
     634: 050d6942     	<unknown>
     638: 00030000     	<unknown>
     63c: 000002e0     	udf	#0x2e0
     640: 00000000     	udf	#0x0

Disassembly of section .gnu.hash:

0000000000000648 <.gnu.hash>:
     648: 00000001     	udf	#0x1
     64c: 0000001d     	udf	#0x1d
     650: 00000001     	udf	#0x1
     654: 0000001a     	udf	#0x1a
		...

Disassembly of section .dynstr:

0000000000000664 <.dynstr>:
     664: 6c5f5f00     	ldnp	d0, d23, [x24, #0x1f0]
     668: 5f636269     	<unknown>
     66c: 74696e69     	<unknown>
     670: 635f5f00     	<unknown>
     674: 615f6178     	<unknown>
     678: 69786574     	ldpsw	x20, x25, [x11, #-0x40]
     67c: 5f5f0074     	<unknown>
     680: 69676572     	ldpsw	x18, x25, [x11, #-0xc8]
     684: 72657473     	<unknown>
     688: 6674615f     	<unknown>
     68c: 006b726f     	<unknown>
     690: 78675f5f     	<unknown>
     694: 65705f78     	fnmla	z24.h, p7/m, z27.h, z16.h
     698: 6e6f7372     	uabdl2	v18.4s, v27.8h, v15.8h
     69c: 74696c61     	<unknown>
     6a0: 30765f79     	adr	x25, 0xed28d
     6a4: 635f5f00     	<unknown>
     6a8: 625f6178     	<unknown>
     6ac: 6e696765     	umax	v5.8h, v27.8h, v9.8h
     6b0: 7461635f     	<unknown>
     6b4: 5f006863     	<unknown>
     6b8: 3974535a     	ldrb	w26, [x26, #0xd14]
     6bc: 6d726574     	ldp	d20, d25, [x11, #-0xe0]
     6c0: 74616e69     	<unknown>
     6c4: 5f007665     	<unknown>
     6c8: 6178635f     	<unknown>
     6cc: 6c6c615f     	ldnp	d31, d24, [x10, #-0x140]
     6d0: 7461636f     	<unknown>
     6d4: 78655f65     	<unknown>
     6d8: 74706563     	<unknown>
     6dc: 006e6f69     	<unknown>
     6e0: 534e5a5f     	<unknown>
     6e4: 78653974     	<unknown>
     6e8: 74706563     	<unknown>
     6ec: 446e6f69     	<unknown>
     6f0: 00764531     	<unknown>
     6f4: 78635f5f     	<unknown>
     6f8: 68745f61     	<unknown>
     6fc: 00776f72     	<unknown>
     700: 534e5a5f     	<unknown>
     704: 5f5f3674     	srsra	d20, d19, #0x21
     708: 316b646e     	adds	w14, w3, #0xad9, lsl #12 // =0xad9000
     70c: 61623331     	<unknown>
     710: 5f636973     	<unknown>
     714: 7274736f     	<unknown>
     718: 496d6165     	<unknown>
     71c: 5f534e63     	<unknown>
     720: 68633131     	<unknown>
     724: 745f7261     	<unknown>
     728: 74696172     	<unknown>
     72c: 45634973     	<unknown>
     730: 73364545     	<unknown>
     734: 72746e65     	<unknown>
     738: 45314379     	<unknown>
     73c: 5f335352     	fmls	h18, h26, v3.h[3]
     740: 4e5a5f00     	<unknown>
     744: 5f367453     	sqshl	s19, s2, #0x16
     748: 6b646e5f     	<unknown>
     74c: 62333131     	<unknown>
     750: 63697361     	<unknown>
     754: 74736f5f     	<unknown>
     758: 6d616572     	ldp	d18, d25, [x11, #-0x1f0]
     75c: 534e6349     	<unknown>
     760: 6331315f     	<unknown>
     764: 5f726168     	<unknown>
     768: 69617274     	ldpsw	x20, x28, [x19, #-0xf8]
     76c: 63497374     	<unknown>
     770: 36454545     	tbz	w5, #0x8, 0xffffffffffffb018
     774: 746e6573     	<unknown>
     778: 31447972     	adds	w18, w11, #0x11e, lsl #12 // =0x11e000
     77c: 5f007645     	<unknown>
     780: 74534e5a     	<unknown>
     784: 6e5f5f36     	<unknown>
     788: 38316b64     	strb	w4, [x27, x17]
     78c: 5f736f69     	<unknown>
     790: 65736162     	fnmls	z2.h, p0/m, z11.h, z19.h
     794: 5f5f3333     	sqdmlal	s19, h25, v15.h[1]
     798: 5f746573     	<unknown>
     79c: 62646162     	<unknown>
     7a0: 615f7469     	<unknown>
     7a4: 635f646e     	<unknown>
     7a8: 69736e6f     	ldpsw	x15, x27, [x19, #-0x68]
     7ac: 5f726564     	<unknown>
     7b0: 68746572     	<unknown>
     7b4: 45776f72     	raddhnt	z18.b, z27.h, z23.h
     7b8: 5f5f0076     	<unknown>
     7bc: 5f617863     	sqdmlsl	s3, h3, v1.h[6]
     7c0: 5f646e65     	<unknown>
     7c4: 63746163     	<unknown>
     7c8: 5a5f0068     	<unknown>
     7cc: 006d776e     	<unknown>
     7d0: 6c645a5f     	ldnp	d31, d22, [x18, #-0x1c0]
     7d4: 006d7650     	<unknown>
     7d8: 4b4e5a5f     	sub	wzr, w18, w14, lsr #22
     7dc: 5f367453     	sqshl	s19, s2, #0x16
     7e0: 6b646e5f     	<unknown>
     7e4: 6f693831     	fcmla	v17.8h, v1.8h, v9.h[3], #90
     7e8: 61625f73     	<unknown>
     7ec: 67366573     	<unknown>
     7f0: 6f6c7465     	uqshl	v5.2d, v3.2d, #0x2c
     7f4: 00764563     	<unknown>
     7f8: 534e5a5f     	<unknown>
     7fc: 5f5f3674     	srsra	d20, d19, #0x21
     800: 316b646e     	adds	w14, w3, #0xad9, lsl #12 // =0xad9000
     804: 636f6c36     	<unknown>
     808: 44656c61     	<unknown>
     80c: 00764531     	<unknown>
     810: 4b4e5a5f     	sub	wzr, w18, w14, lsr #22
     814: 5f367453     	sqshl	s19, s2, #0x16
     818: 6b646e5f     	<unknown>
     81c: 6f6c3631     	ursra	v17.2d, v17.2d, #0x14
     820: 656c6163     	fnmls	z3.h, p0/m, z11.h, z12.h
     824: 65737539     	fnmls	z25.h, p5/m, z9.h, z19.h
     828: 6361665f     	<unknown>
     82c: 52457465     	<unknown>
     830: 5f30534e     	fmls	h14, h26, v0.h[3]
     834: 45646932     	raddhnb	z18.b, z9.h, z4.h
     838: 4e5a5f00     	<unknown>
     83c: 5f367453     	sqshl	s19, s2, #0x16
     840: 6b646e5f     	<unknown>
     844: 6f693831     	fcmla	v17.8h, v1.8h, v9.h[3], #90
     848: 61625f73     	<unknown>
     84c: 63356573     	<unknown>
     850: 7261656c     	<unknown>
     854: 73006a45     	<unknown>
     858: 656c7274     	fnmls	z20.h, p4/m, z19.h, z12.h
     85c: 5a5f006e     	<unknown>
     860: 3674534e     	tbz	w14, #0xe, 0xffffffffffff92c8
     864: 646e5f5f     	<unknown>
     868: 3331316b     	<unknown>
     86c: 69736162     	ldpsw	x2, x24, [x11, #-0x68]
     870: 736f5f63     	<unknown>
     874: 61657274     	<unknown>
     878: 4e63496d     	<unknown>
     87c: 31315f53     	adds	w19, w26, #0xc57
     880: 72616863     	<unknown>
     884: 6172745f     	<unknown>
     888: 49737469     	<unknown>
     88c: 45454563     	saddwt	z3.h, z11.h, z5.b
     890: 74757033     	<unknown>
     894: 5f006345     	<unknown>
     898: 74534e5a     	<unknown>
     89c: 6e5f5f36     	<unknown>
     8a0: 31316b64     	adds	w4, w27, #0xc5a
     8a4: 73616233     	<unknown>
     8a8: 6f5f6369     	umlsl2	v9.4s, v27.8h, v15.h[1]
     8ac: 65727473     	fnmls	z19.h, p5/m, z3.h, z18.h
     8b0: 63496d61     	<unknown>
     8b4: 315f534e     	adds	w14, w26, #0x7d4, lsl #12 // =0x7d4000
     8b8: 61686331     	<unknown>
     8bc: 72745f72     	<unknown>
     8c0: 73746961     	<unknown>
     8c4: 45456349     	sqdmullb	z9.h, z26.b, z5.b
     8c8: 6c663545     	ldnp	d5, d13, [x10, #-0x1a0]
     8cc: 45687375     	subhnb	z21.b, z27.h, z8.h
     8d0: 5a5f0076     	<unknown>
     8d4: 3674534e     	tbz	w14, #0xe, 0xffffffffffff933c
     8d8: 646e5f5f     	<unknown>
     8dc: 6334316b     	<unknown>
     8e0: 4574756f     	subhnt	z15.b, z11.h, z20.h
     8e4: 545a5f00     	b.eq	0xb54c4
     8e8: 39745349     	ldrb	w9, [x26, #0xd14]
     8ec: 65637865     	fnmls	z5.h, p6/m, z3.h, z3.h
     8f0: 6f697470     	uqshl	v16.2d, v3.2d, #0x29
     8f4: 5a5f006e     	<unknown>
     8f8: 74535654     	<unknown>
     8fc: 63786539     	<unknown>
     900: 69747065     	ldpsw	x5, x28, [x3, #-0x60]
     904: 5f006e6f     	<unknown>
     908: 74534e5a     	<unknown>
     90c: 6e5f5f36     	<unknown>
     910: 35316b64     	cbnz	w4, 0x6367c
     914: 70797463     	adr	x3, 0xf37a3
     918: 45634965     	<unknown>
     91c: 45646932     	raddhnb	z18.b, z9.h, z4.h
     920: 6e555f00     	<unknown>
     924: 646e6977     	<unknown>
     928: 7365525f     	<unknown>
     92c: 00656d75     	<unknown>
     930: 736d656d     	<unknown>
     934: 6c007465     	stnp	d5, d29, [x3]
     938: 2e636269     	rsubhn	v9.4h, v19.4s, v3.4s
     93c: 4c006f73     	st1	{ v19.2d, v20.2d, v21.2d }, [x27]
     940: 00434249     	<unknown>
     944: 4342494c     	<unknown>
     948: 2f00525f     	<unknown>
     94c: 61746164     	<unknown>
     950: 7461642f     	<unknown>
     954: 6f632f61     	<unknown>
     958: 65742e6d     	fmls	z13.h, p3/m, z19.h, z20.h
     95c: 78756d72     	<unknown>
     960: 6c69662f     	ldnp	d15, d25, [x17, #-0x170]
     964: 752f7365     	<unknown>
     968: 622f7273     	<unknown>
     96c: 2e2f6e69     	umin	v9.8b, v19.8b, v15.8b
     970: 2e2e2f2e     	uqsub	v14.8b, v25.8b, v14.8b
     974: 7273752f     	<unknown>
     978: 62696c2f     	<unknown>
     97c: 62696c00     	<unknown>
     980: 5f2b2b63     	<unknown>
     984: 72616873     	<unknown>
     988: 732e6465     	<unknown>
     98c: 696c006f     	ldpsw	x15, x0, [x3, #-0xa0]
     990: 2e6c6462     	umax	v2.4h, v3.4h, v12.4h
     994: 6c006f73     	stnp	d19, d27, [x27]
     998: 2e6d6269     	rsubhn	v9.4h, v19.4s, v13.4s
     99c: 73 6f 00     	<unknown>

Disassembly of section .rela.dyn:

00000000000009a0 <.rela.dyn>:
     9a0: 0000b080     	udf	#0xb080
     9a4: 00000000     	udf	#0x0
     9a8: 00000403     	udf	#0x403
		...
     9b8: 0000b088     	udf	#0xb088
     9bc: 00000000     	udf	#0x0
     9c0: 00000403     	udf	#0x403
		...
     9d0: 0000b090     	udf	#0xb090
     9d4: 00000000     	udf	#0x0
     9d8: 00000403     	udf	#0x403
     9dc: 00000000     	udf	#0x0
     9e0: 000017e0     	udf	#0x17e0
     9e4: 00000000     	udf	#0x0
     9e8: 0000f190     	udf	#0xf190
     9ec: 00000000     	udf	#0x0
     9f0: 00000403     	udf	#0x403
     9f4: 00000000     	udf	#0x0
     9f8: 0000178c     	udf	#0x178c
     9fc: 00000000     	udf	#0x0
     a00: 0000f1a0     	udf	#0xf1a0
     a04: 00000000     	udf	#0x0
     a08: 00000101     	udf	#0x101
     a0c: 00000004     	udf	#0x4
		...
     a18: 0000b098     	udf	#0xb098
     a1c: 00000000     	udf	#0x0
     a20: 00000401     	udf	#0x401
     a24: 00000008     	udf	#0x8
		...
     a30: 0000b0a0     	udf	#0xb0a0
     a34: 00000000     	udf	#0x0
     a38: 00000401     	udf	#0x401
     a3c: 00000017     	udf	#0x17
		...
     a48: 0000b0a8     	udf	#0xb0a8
     a4c: 00000000     	udf	#0x0
     a50: 00000401     	udf	#0x401
     a54: 00000018     	udf	#0x18
		...
     a60: 0000b0b0     	udf	#0xb0b0
     a64: 00000000     	udf	#0x0
     a68: 00000401     	udf	#0x401
     a6c: 00000019     	udf	#0x19
		...
     a78: 0000b0b8     	udf	#0xb0b8
     a7c: 00000000     	udf	#0x0
     a80: 00000401     	udf	#0x401
     a84: 0000001a     	udf	#0x1a
		...

Disassembly of section .rela.plt:

0000000000000a90 <.rela.plt>:
     a90: 0000b0d8     	udf	#0xb0d8
     a94: 00000000     	udf	#0x0
     a98: 00000402     	udf	#0x402
     a9c: 00000001     	udf	#0x1
		...
     aa8: 0000b0e0     	udf	#0xb0e0
     aac: 00000000     	udf	#0x0
     ab0: 00000402     	udf	#0x402
     ab4: 00000002     	udf	#0x2
		...
     ac0: 0000b0e8     	udf	#0xb0e8
     ac4: 00000000     	udf	#0x0
     ac8: 00000402     	udf	#0x402
     acc: 00000003     	udf	#0x3
		...
     ad8: 0000b0f0     	udf	#0xb0f0
     adc: 00000000     	udf	#0x0
     ae0: 00000402     	udf	#0x402
     ae4: 00000005     	udf	#0x5
		...
     af0: 0000b0f8     	udf	#0xb0f8
     af4: 00000000     	udf	#0x0
     af8: 00000402     	udf	#0x402
     afc: 00000006     	udf	#0x6
		...
     b08: 0000b100     	udf	#0xb100
     b0c: 00000000     	udf	#0x0
     b10: 00000402     	udf	#0x402
     b14: 00000007     	udf	#0x7
		...
     b20: 0000b108     	udf	#0xb108
     b24: 00000000     	udf	#0x0
     b28: 00000402     	udf	#0x402
     b2c: 00000009     	udf	#0x9
		...
     b38: 0000b110     	udf	#0xb110
     b3c: 00000000     	udf	#0x0
     b40: 00000402     	udf	#0x402
     b44: 0000000a     	udf	#0xa
		...
     b50: 0000b118     	udf	#0xb118
     b54: 00000000     	udf	#0x0
     b58: 00000402     	udf	#0x402
     b5c: 0000000b     	udf	#0xb
		...
     b68: 0000b120     	udf	#0xb120
     b6c: 00000000     	udf	#0x0
     b70: 00000402     	udf	#0x402
     b74: 0000000c     	udf	#0xc
		...
     b80: 0000b128     	udf	#0xb128
     b84: 00000000     	udf	#0x0
     b88: 00000402     	udf	#0x402
     b8c: 0000000d     	udf	#0xd
		...
     b98: 0000b130     	udf	#0xb130
     b9c: 00000000     	udf	#0x0
     ba0: 00000402     	udf	#0x402
     ba4: 0000000e     	udf	#0xe
		...
     bb0: 0000b138     	udf	#0xb138
     bb4: 00000000     	udf	#0x0
     bb8: 00000402     	udf	#0x402
     bbc: 0000000f     	udf	#0xf
		...
     bc8: 0000b140     	udf	#0xb140
     bcc: 00000000     	udf	#0x0
     bd0: 00000402     	udf	#0x402
     bd4: 00000010     	udf	#0x10
		...
     be0: 0000b148     	udf	#0xb148
     be4: 00000000     	udf	#0x0
     be8: 00000402     	udf	#0x402
     bec: 00000011     	udf	#0x11
		...
     bf8: 0000b150     	udf	#0xb150
     bfc: 00000000     	udf	#0x0
     c00: 00000402     	udf	#0x402
     c04: 00000012     	udf	#0x12
		...
     c10: 0000b158     	udf	#0xb158
     c14: 00000000     	udf	#0x0
     c18: 00000402     	udf	#0x402
     c1c: 00000013     	udf	#0x13
		...
     c28: 0000b160     	udf	#0xb160
     c2c: 00000000     	udf	#0x0
     c30: 00000402     	udf	#0x402
     c34: 00000014     	udf	#0x14
		...
     c40: 0000b168     	udf	#0xb168
     c44: 00000000     	udf	#0x0
     c48: 00000402     	udf	#0x402
     c4c: 00000015     	udf	#0x15
		...
     c58: 0000b170     	udf	#0xb170
     c5c: 00000000     	udf	#0x0
     c60: 00000402     	udf	#0x402
     c64: 00000016     	udf	#0x16
		...
     c70: 0000b178     	udf	#0xb178
     c74: 00000000     	udf	#0x0
     c78: 00000402     	udf	#0x402
     c7c: 0000001b     	udf	#0x1b
		...
     c88: 0000b180     	udf	#0xb180
     c8c: 00000000     	udf	#0x0
     c90: 00000402     	udf	#0x402
     c94: 0000001c     	udf	#0x1c
		...

Disassembly of section .rodata:

0000000000000ca0 <.rodata>:
     ca0: ffffffe0     	<unknown>
     ca4: ffffffff     	<unknown>
     ca8: ffffffd8     	<unknown>
     cac: ffffffff     	<unknown>
     cb0: 00000018     	udf	#0x18
     cb4: 00000000     	udf	#0x0
     cb8: 00000010     	udf	#0x10
     cbc: 00000000     	udf	#0x0
     cc0: 00000006     	udf	#0x6
     cc4: 00000005     	udf	#0x5
     cc8: 00000004     	udf	#0x4
     ccc: 00000003     	udf	#0x3
     cd0: ffffffd0     	<unknown>
     cd4: ffffffff     	<unknown>
     cd8: ffffffc8     	<unknown>
     cdc: ffffffff     	<unknown>
     ce0: ffffffd8     	<unknown>
     ce4: ffffffff     	<unknown>
     ce8: ffffffd0     	<unknown>
     cec: ffffffff     	<unknown>
     cf0: 00000010     	udf	#0x10
     cf4: 00000000     	udf	#0x0
     cf8: 00000018     	udf	#0x18
     cfc: 00000000     	udf	#0x0
     d00: fffffffe     	<unknown>
     d04: fffffffd     	<unknown>
     d08: fffffffc     	<unknown>
     d0c: fffffffb     	<unknown>
     d10: 505ee949     	adr	x9, 0xbea3a
     d14: 84cad845     	ld1rh	{ z5.s }, p6/z, [x2, #0x14]
     d18: 2cfb1370     	ldp	s16, s4, [x27], #-0x28
     d1c: 5d815382     	<unknown>
     d20: ffffffe8     	<unknown>
     d24: ffffffff     	<unknown>
     d28: ffffffe0     	<unknown>
     d2c: ffffffff     	<unknown>
     d30: ffffffc8     	<unknown>
     d34: ffffffff     	<unknown>
     d38: fffffff8     	<unknown>
     d3c: ffffffff     	<unknown>
     d40: ea931cfe     	ands	x30, x7, x19, asr #7
     d44: f38f9679     	<unknown>
     d48: e902dc5c     	sttp	x28, x23, [x2, #0x28]
     d4c: 23afb47e     	<unknown>
     d50: 1763c57a     	b	0xfffffffffd8f2338
     d54: 97d1d300     	bl	0xffffffffff475954
     d58: 2ce31364     	ldp	s4, s4, [x27], #-0xe8
     d5c: fbfb01e6     	<unknown>
     d60: 048aa4f7     	cnt	z23.s, p1/z, z7.s
     d64: 55d6adbf     	<unknown>
     d68: 6ce214fa     	ldp	d26, d5, [x7], #-0x1e0
     d6c: 98d867cf     	ldrsw	x15, 0xfffffffffffb1a64
     d70: fffffff8     	<unknown>
     d74: ffffffff     	<unknown>
     d78: fffffff0     	<unknown>
     d7c: ffffffff     	<unknown>
     d80: fffffff0     	<unknown>
     d84: ffffffff     	<unknown>
     d88: ffffffe8     	<unknown>
     d8c: ffffffff     	<unknown>
     d90: 00000003     	udf	#0x3
     d94: 00000002     	udf	#0x2
     d98: 00000000     	udf	#0x0
     d9c: 00000004     	udf	#0x4
     da0: 00030002     	<unknown>
     da4: 00050004     	<unknown>
     da8: 15b57eee     	b	0x6d60960
     dac: 00000000     	udf	#0x0
     db0: 00000001     	udf	#0x1
     db4: 00000002     	udf	#0x2
     db8: 00000003     	udf	#0x3
     dbc: 00000001     	udf	#0x1
     dc0: 00000000     	udf	#0x0
     dc4: 00000001     	udf	#0x1
     dc8: 6c53547c     	ldnp	d28, d21, [x3, #0x130]
     dcc: 33cb8a6b     	<unknown>
     dd0: 00000002     	udf	#0x2
     dd4: 00000001     	udf	#0x1
     dd8: 00000001     	udf	#0x1
     ddc: 00000003     	udf	#0x3
     de0: 00000002     	udf	#0x2
     de4: 00000003     	udf	#0x3
     de8: ad516c54     	ldp	q20, q27, [x2, #0x220]
     dec: 0257a930     	<unknown>
     df0: b9553380     	ldr	w0, [x28, #0x1530]
     df4: ee668633     	<unknown>
     df8: 00000032     	udf	#0x32
     dfc: 00000002     	udf	#0x2
     e00: 00000002     	udf	#0x2
     e04: 00000043     	udf	#0x43
     e08: 00000002     	udf	#0x2
     e0c: 00000003     	udf	#0x3
     e10: 0000005b     	udf	#0x5b
     e14: 00000003     	udf	#0x3
     e18: 00000003     	udf	#0x3
		...
     e28: 00000001     	udf	#0x1
     e2c: 238ba48d     	<unknown>
     e30: e1851351     	<unknown>
     e34: 44f6d520     	umullt	z0.d, z9.s, z6.s[2]
     e38: d139c1e0     	sub	x0, x15, #0xe70
     e3c: 00000070     	udf	#0x70
     e40: 00000004     	udf	#0x4
     e44: 00000003     	udf	#0x3
     e48: 00000002     	udf	#0x2
     e4c: 00000003     	udf	#0x3
     e50: 00000003     	udf	#0x3
     e54: 00000062     	udf	#0x62
     e58: 00000001     	udf	#0x1
     e5c: 00000001     	udf	#0x1
		...
     e6c: 00000001     	udf	#0x1
     e70: e2e955c8     	<unknown>
     e74: 37cad0c4     	tbnz	w4, #0x19, 0x688c
     e78: 4d5ae5d4     	<unknown>
     e7c: 84fc1ffe     	ld1sh	{ z30.s }, p7/z, [sp, z28.s, sxtw #1]
     e80: 0000001b     	udf	#0x1b
     e84: 00000004     	udf	#0x4
     e88: 00000003     	udf	#0x3
     e8c: 00000075     	udf	#0x75
     e90: 00000003     	udf	#0x3
     e94: 00000002     	udf	#0x2
		...
     eb0: 00000001     	udf	#0x1
     eb4: 9d5e9a2a     	ldapur	s10, [x17, #-0x17]
     eb8: d720caef     	<unknown>
     ebc: cd7cf702     	<unknown>
     ec0: 2453bec8     	cmpeq	p8.h, p7/z, z22.h, z19.h
     ec4: 00000044     	udf	#0x44
     ec8: 00000000     	udf	#0x0
     ecc: 00000004     	udf	#0x4
     ed0: 00000020     	udf	#0x20
     ed4: 00000004     	udf	#0x4
     ed8: 00000004     	udf	#0x4
     edc: 0000006a     	udf	#0x6a
     ee0: 00000001     	udf	#0x1
     ee4: 00000002     	udf	#0x2
		...
     ef4: 00000001     	udf	#0x1
     ef8: a468b5bb     	ld1b	{ z27.d }, p5/z, [x13, #-0x8, mul vl]
     efc: f38e6bf3     	<unknown>
     f00: c19dc161     	<unknown>
     f04: fa64adbf     	<unknown>
     f08: 00000078     	udf	#0x78
     f0c: 00000001     	udf	#0x1
     f10: 00000004     	udf	#0x4
     f14: 00000057     	udf	#0x57
     f18: 00000001     	udf	#0x1
     f1c: 00000003     	udf	#0x3
     f20: 0000002b     	udf	#0x2b
     f24: 00000004     	udf	#0x4
     f28: 00000002     	udf	#0x2
		...
     f38: 00000001     	udf	#0x1
     f3c: f600e853     	<unknown>
     f40: adb17e20     	stp	q0, q31, [x17, #-0x1e0]!
     f44: 9cbee56a     	ldr	q10, 0xfffffffffff7ebf0
     f48: e758264a     	<unknown>
     f4c: 00000042     	udf	#0x42
     f50: 00000003     	udf	#0x3
     f54: 00000004     	udf	#0x4
     f58: 0000006a     	udf	#0x6a
     f5c: 00000002     	udf	#0x2
     f60: 00000004     	udf	#0x4
     f64: 00000048     	udf	#0x48
     f68: 00000004     	udf	#0x4
     f6c: 00000003     	udf	#0x3
		...
     f7c: 00000001     	udf	#0x1
     f80: f5bad753     	<unknown>
     f84: 2423a1c0     	cmplo	p0.b, p0/z, z14.b, #0xe
     f88: b712fb05     	tbnz	x5, #0x22, 0x6ee8 <memset@plt+0x8>
     f8c: 4de98f04     	<unknown>
     f90: 00000016     	udf	#0x16
     f94: 00000001     	udf	#0x1
     f98: 00000004     	udf	#0x4
     f9c: 00000068     	udf	#0x68
     fa0: 00000000     	udf	#0x0
     fa4: 00000004     	udf	#0x4
     fa8: 00000010     	udf	#0x10
     fac: 00000003     	udf	#0x3
     fb0: 00000002     	udf	#0x2
		...
     fc0: 00000001     	udf	#0x1
     fc4: 33e243ef     	<unknown>
     fc8: a1e24538     	<unknown>
     fcc: d58c666a     	<unknown>
     fd0: 8eadb7c6     	<unknown>
     fd4: 00000025     	udf	#0x25
     fd8: 00000001     	udf	#0x1
     fdc: 00000001     	udf	#0x1
     fe0: 00000079     	udf	#0x79
     fe4: 00000001     	udf	#0x1
     fe8: 00000001     	udf	#0x1
		...
    1004: 00000001     	udf	#0x1
    1008: 97605fd5     	bl	0xfffffffffd818f5c
    100c: 21c241f8     	<unknown>
    1010: ab3645c3     	adds	x3, x14, w22, uxtw #1
    1014: 386cb302     	rcwsetl	x12, x2, [x24]
    1018: 00000031     	udf	#0x31
    101c: 00000002     	udf	#0x2
    1020: 00000003     	udf	#0x3
    1024: 0000003a     	udf	#0x3a
    1028: 00000003     	udf	#0x3
    102c: 00000001     	udf	#0x1
		...
    1048: 00000001     	udf	#0x1
    104c: d1bc72af     	subg	x15, x21, #0x3c0, #0xc
    1050: 817921e9     	<unknown>
    1054: 114df9b1     	add	w17, w13, #0x37e, lsl #12 // =0x37e000
    1058: eae46d15     	bics	x21, x8, x4, ror #27
    105c: 00000079     	udf	#0x79
    1060: 00000001     	udf	#0x1
    1064: 00000001     	udf	#0x1
    1068: 00000076     	udf	#0x76
    106c: 00000002     	udf	#0x2
    1070: 00000002     	udf	#0x2
		...
    108c: 00000001     	udf	#0x1
    1090: b2d7b5d3     	<unknown>
    1094: 2de3d0c4     	ldp	s4, s20, [x6, #-0xe4]!
    1098: 6a518d53     	<unknown>
    109c: d9f754ed     	stz2g	x13, [x7], #-0x8b0
    10a0: 0000000e     	udf	#0xe
    10a4: 00000001     	udf	#0x1
    10a8: 00000003     	udf	#0x3
    10ac: 0000006d     	udf	#0x6d
    10b0: 00000000     	udf	#0x0
    10b4: 00000001     	udf	#0x1
    10b8: 0000002e     	udf	#0x2e
    10bc: 00000001     	udf	#0x1
    10c0: 00000001     	udf	#0x1
		...
    10d0: 00000001     	udf	#0x1
    10d4: 4b77eea7     	<unknown>
    10d8: 8f0ef3cd     	<unknown>
    10dc: ccb4702c     	<unknown>
    10e0: 2eee5c25     	<unknown>
    10e4: 0000006d     	udf	#0x6d
    10e8: 00000002     	udf	#0x2
    10ec: 00000002     	udf	#0x2
    10f0: 0000002d     	udf	#0x2d
    10f4: 00000003     	udf	#0x3
    10f8: 00000002     	udf	#0x2
		...
    1114: 00000001     	udf	#0x1
    1118: 1013b4bf     	adr	xzr, 0x287ac
    111c: 998f97ca     	<unknown>
    1120: 2f8d0b29     	mla	v9.2s, v25.2s, v13.s[2]
    1124: d5460944     	msrr	S0_6_C0_C9_2, x4, x5
    1128: 0000003d     	udf	#0x3d
    112c: 00000004     	udf	#0x4
    1130: 00000001     	udf	#0x1
    1134: 0000004b     	udf	#0x4b
    1138: 00000002     	udf	#0x2
    113c: 00000003     	udf	#0x3
		...
    1158: 00000001     	udf	#0x1
    115c: 336d3e70     	<unknown>
    1160: 387b6090     	ldumaxlb	w27, w16, [x4]
    1164: ce575634     	sm3ss1	v20.4s, v17.4s, v23.4s, v21.4s
    1168: bcc5c10b     	<unknown>
    116c: 00000027     	udf	#0x27
    1170: 00000004     	udf	#0x4
    1174: 00000004     	udf	#0x4
    1178: 0000001b     	udf	#0x1b
    117c: 00000002     	udf	#0x2
    1180: 00000003     	udf	#0x3
		...
    119c: 00000001     	udf	#0x1
    11a0: 444ce3f0     	zipq1	z16.h, z31.h, z12.h
    11a4: 524767b4     	<unknown>
    11a8: a7c378cd     	<unknown>
    11ac: 7f145567     	<unknown>
    11b0: 0000003b     	udf	#0x3b
    11b4: 00000002     	udf	#0x2
    11b8: 00000004     	udf	#0x4
    11bc: 00000072     	udf	#0x72
    11c0: 00000003     	udf	#0x3
    11c4: 00000004     	udf	#0x4
		...
    11e0: 00000001     	udf	#0x1
    11e4: bf293b0b     	<unknown>
    11e8: 5d7b0b29     	<unknown>
    11ec: bb004b6c     	<unknown>
    11f0: 23b45837     	<unknown>
    11f4: 0000002d     	udf	#0x2d
    11f8: 00000004     	udf	#0x4
    11fc: 00000002     	udf	#0x2
    1200: 00000038     	udf	#0x38
    1204: 00000001     	udf	#0x1
    1208: 00000004     	udf	#0x4
		...
    1224: 00000001     	udf	#0x1
    1228: 80108010     	smop4s	za0.s, z0.b, { z16.b, z17.b }
    122c: 80108010     	smop4s	za0.s, z0.b, { z16.b, z17.b }
    1230: 0000d81b     	udf	#0xd81b
    1234: 0000002d     	udf	#0x2d
    1238: 00000002     	udf	#0x2
    123c: 00000003     	udf	#0x3
    1240: 00000009     	udf	#0x9
    1244: 00000001     	udf	#0x1
    1248: 00000004     	udf	#0x4
		...
    1264: 00000001     	udf	#0x1

Disassembly of section .gcc_except_table:

0000000000001268 <.gcc_except_table>:
    1268: 01419cff     	<unknown>
    126c: 3b9c0032     	<unknown>
    1270: 3b9c0000     	<unknown>
    1274: 0075a020     	<unknown>
    1278: 38803bbc     	ldtrsb	x28, [x29, #0x3]
    127c: 73bc0000     	<unknown>
    1280: 00758c20     	<unknown>
    1284: 007073dc     	<unknown>
    1288: 1474cc00     	b	0x1d34288
    128c: e00175b8     	<unknown>
    1290: 00001874     	udf	#0x1874
    1294: b41474f8     	cbz	x24, 0x2a130
    1298: 758c0175     	<unknown>
    129c: 01000030     	<unknown>
		...
    12ac: 01599cff     	<unknown>
    12b0: f814284a     	sttr	x10, [x2, #-0xbe]
    12b4: 01840104     	<unknown>
    12b8: 0104e80c     	<unknown>
    12bc: d4200190     	<unknown>
    12c0: 01f40104     	<unknown>
    12c4: 0104e858     	<unknown>
    12c8: 004002cc     	<unknown>
    12cc: 0c038c00     	<unknown>
    12d0: d00104b4     	adrp	x20, 0x2097000
    12d4: 04e81003     	sqadd	z3.d, z0.d, z8.d
    12d8: 08048401     	stlxrb	w4, w1, [x0]
    12dc: 8c0104e4     	<unknown>
    12e0: 00018004     	<unknown>
    12e4: 08058c00     	stlxrb	w5, w0, [x0]
    12e8: 9400059c     	bl	0x2958
    12ec: 00000c05     	udf	#0xc05
    12f0: ac0405a0     	stnp	q0, q1, [x13, #0x80]
    12f4: 05a40105     	zip1	z5.q, z8.q, z4.q
    12f8: 0100000c     	<unknown>
		...
    1308: 01259cff     	<unknown>
    130c: 06a40016     	<unknown>
    1310: 06a40000     	<unknown>
    1314: 0106e814     	<unknown>
    1318: 001806b8     	<unknown>
    131c: 1406d000     	b	0x1b531c
    1320: 010106e4     	<unknown>
		...
    1330: 01659cff     	<unknown>
    1334: 0eb80058     	saddl	v24.2d, v2.2s, v24.2s
    1338: 0eb80000     	saddl	v0.2d, v0.2s, v24.2s
    133c: 01119c14     	<unknown>
    1340: 00180ecc     	<unknown>
    1344: 140ee400     	b	0x3ba344
    1348: f8011198     	stur	x24, [x12, #0x11]
    134c: 0000180e     	udf	#0x180e
    1350: 94140f90     	bl	0x505190
    1354: 0fa40111     	fmlal	v17.2s, v8.2h, v4.h[2]
    1358: bc000018     	stur	s24, [x0]
    135c: 1190140f     	<unknown>
    1360: 180fd001     	ldr	w1, 0x20d60
    1364: 0fe80000     	fmlalb	v0.8h, v0.16b, v0.b[5]
    1368: 01118c14     	<unknown>
    136c: 00180ffc     	<unknown>
    1370: 14109400     	b	0x426370
    1374: a8011188     	stnp	x8, x4, [x12, #0x10]
    1378: 00001810     	udf	#0x1810
    137c: 841410c0     	ld1sb	{ z0.s }, p4/z, [x6, z20.s, uxtw]
    1380: 10d40111     	adr	x17, 0xfffffffffffa93a0
    1384: ec000018     	sttnp	q24, q0, [x0]
    1388: 11801410     	<unknown>
    138c: 00000101     	udf	#0x101
		...

Disassembly of section .eh_frame_hdr:

0000000000001398 <.eh_frame_hdr>:
    1398: 3b031b01     	<unknown>
    139c: 00000074     	udf	#0x74
    13a0: 0000000d     	udf	#0xd
    13a4: 0000035c     	udf	#0x35c
    13a8: 0000008c     	udf	#0x8c
    13ac: 000003b4     	udf	#0x3b4
    13b0: 000000ac     	udf	#0xac
    13b4: 000003c8     	udf	#0x3c8
    13b8: 000000c0     	udf	#0xc0
    13bc: 000003e4     	udf	#0x3e4
    13c0: 000000d4     	udf	#0xd4
    13c4: 000003f4     	udf	#0x3f4
    13c8: 000000e8     	udf	#0xe8
    13cc: 00000448     	udf	#0x448
    13d0: 00000218     	udf	#0x218
    13d4: 00003f04     	udf	#0x3f04
    13d8: 00000288     	udf	#0x288
    13dc: 000041b4     	udf	#0x41b4
    13e0: 00000118     	udf	#0x118
    13e4: 0000433c     	udf	#0x433c
    13e8: 00000144     	udf	#0x144
    13ec: 0000434c     	udf	#0x434c
    13f0: 00000160     	udf	#0x160
    13f4: 00004bb8     	udf	#0x4bb8
    13f8: 000001b8     	udf	#0x1b8
    13fc: 00004dcc     	udf	#0x4dcc
    1400: 000002dc     	udf	#0x2dc
    1404: 00005138     	udf	#0x5138
    1408: 00000310     	udf	#0x310

Disassembly of section .eh_frame:

0000000000001410 <.eh_frame>:
    1410: 00000010     	udf	#0x10
    1414: 00000000     	udf	#0x0
    1418: 00527a01     	<unknown>
    141c: 011e7c01     	<unknown>
    1420: 001f0c1b     	<unknown>
    1424: 0000001c     	udf	#0x1c
    1428: 00000018     	udf	#0x18
    142c: 000002c8     	udf	#0x2c8
    1430: 00000058     	udf	#0x58
    1434: 0e482d00     	<unknown>
    1438: 1d0c4840     	stlur	b0, [x2, #0xc4]
    143c: 9d029e10     	<unknown>
    1440: 00000004     	udf	#0x4
    1444: 00000010     	udf	#0x10
    1448: 00000038     	udf	#0x38
    144c: 00000300     	udf	#0x300
    1450: 00000014     	udf	#0x14
    1454: 00000000     	udf	#0x0
    1458: 00000010     	udf	#0x10
    145c: 0000004c     	udf	#0x4c
    1460: 00000300     	udf	#0x300
    1464: 0000001c     	udf	#0x1c
    1468: 00000000     	udf	#0x0
    146c: 00000010     	udf	#0x10
    1470: 00000060     	udf	#0x60
    1474: 00000308     	udf	#0x308
    1478: 00000010     	udf	#0x10
    147c: 00000000     	udf	#0x0
    1480: 0000002c     	udf	#0x2c
    1484: 00000074     	udf	#0x74
    1488: 00000304     	udf	#0x304
    148c: 00000054     	udf	#0x54
    1490: 0e482d00     	<unknown>
    1494: 1d0c4820     	stlur	b0, [x1, #0xc4]
    1498: 94029320     	bl	0xa6118
    149c: 9d069e04     	<unknown>
    14a0: 1f0c7408     	fmadd	s8, s0, s12, s29
    14a4: 000e4820     	<unknown>
    14a8: d4d3442d     	<unknown>
    14ac: 0000ddde     	udf	#0xddde
    14b0: 00000028     	udf	#0x28
    14b4: 000000a4     	udf	#0xa4
    14b8: 00004094     	udf	#0x4094
    14bc: 00000188     	udf	#0x188
    14c0: 800e5000     	<unknown>
    14c4: 1d0c4c01     	<unknown>
    14c8: 9e049320     	<unknown>
    14cc: 03089d06     	<unknown>
    14d0: 1f0c015c     	fmadd	s28, s10, s12, s0
    14d4: 0e4c0180     	<unknown>
    14d8: ddded300     	<unknown>
    14dc: 00000018     	udf	#0x18
    14e0: 000000d0     	udf	#0xd0
    14e4: 000041f0     	udf	#0x41f0
    14e8: 00000010     	udf	#0x10
    14ec: 100e4400     	adr	x0, 0x1dd6c
    14f0: 101d0c44     	adr	x4, 0x3b678
    14f4: 049d029e     	<unknown>
    14f8: 00000054     	udf	#0x54
    14fc: 000000ec     	udf	#0xec
    1500: 000041e4     	udf	#0x41e4
    1504: 0000086c     	udf	#0x86c
    1508: f00e4400     	adrp	x0, 0x1c884000
    150c: 1d0c6402     	cpyprtwn	[x2]!, [x12]!, x0!
    1510: 94029360     	bl	0xa6290
    1514: 96069504     	bl	0xfffffffff81a6924
    1518: 980a9708     	ldrsw	x8, 0x167f8
    151c: 9a0e990c     	<unknown>
    1520: 9c129b10     	ldr	q16, 0x26880
    1524: 9d169e14     	<unknown>
    1528: 1a480518     	<unknown>
    152c: 051c4905     	mov	z5.b, p12/m, #0x48      // =72
    1530: 1c03204a     	ldr	s10, 0x7938 <memset@plt+0xa58>
    1534: f01f0c08     	adrp	x8, 0x3e184000
    1538: 000e6402     	<unknown>
    153c: d6d5d4d3     	<unknown>
    1540: dad9d8d7     	<unknown>
    1544: dddedcdb     	<unknown>
    1548: 49064806     	<unknown>
    154c: 00004a06     	udf	#0x4a06
    1550: 0000003c     	udf	#0x3c
    1554: 00000144     	udf	#0x144
    1558: 000049f8     	udf	#0x49f8
    155c: 00000214     	udf	#0x214
    1560: 600e4400     	<unknown>
    1564: 501d0c58     	adr	x24, 0x3b6ee
    1568: 04940293     	sdiv	z19.s, p0/m, z19.s, z20.s
    156c: 08960695     	stllrb	w21, [x20]
    1570: 0c980a97     	st4	{ v23.2s, v24.2s, v25.2s, v26.2s }, [x20], x24
    1574: 109a0e99     	adr	x25, 0xfffffffffff35744
    1578: 149d129e     	b	0x2745ff0
    157c: 0c01dc03     	<unknown>
    1580: 0e58601f     	<unknown>
    1584: d5d4d300     	<unknown>
    1588: d9d8d7d6     	<unknown>
    158c: 00dddeda     	<unknown>
    1590: 0000001c     	udf	#0x1c
    1594: 00000000     	udf	#0x0
    1598: 4c507a01     	<unknown>
    159c: 7c010052     	stur	h18, [x2, #0x10]
    15a0: fd9c0b1e     	<unknown>
    15a4: 000000db     	udf	#0xdb
    15a8: 1c000000     	ldr	s0, 0x15a8 <.eh_frame+0x198>
    15ac: 001f0c1b     	<unknown>
    15b0: 0000006c     	udf	#0x6c
    15b4: 00000024     	udf	#0x24
    15b8: 00000228     	udf	#0x228
    15bc: 00003abc     	udf	#0x3abc
    15c0: fffca708     	<unknown>
    15c4: ffffffff     	<unknown>
    15c8: 800e44ff     	<unknown>
    15cc: 1d0c6001     	<unknown>
    15d0: 94029340     	bl	0xa62d0
    15d4: 96069504     	bl	0xfffffffff81a69e4
    15d8: 9c0a9708     	ldr	q8, 0x168b8
    15dc: 9d0e9e0c     	<unknown>
    15e0: 12480510     	<unknown>
    15e4: 05144905     	mov	z5.b, p4/m, #0x48       // =72
    15e8: 4b05164a     	sub	w10, w18, w5, lsl #5
    15ec: 1a4c0518     	<unknown>
    15f0: 051c4d05     	mov	z5.b, p12/m, #0x68      // =104
    15f4: 4f051e4e     	<unknown>
    15f8: ec030a20     	sttnp	q0, q2, [x17, #0x60]
    15fc: 801f0c39     	<unknown>
    1600: 000e6001     	<unknown>
    1604: d6d5d4d3     	<unknown>
    1608: dddedcd7     	<unknown>
    160c: 49064806     	<unknown>
    1610: 4b064a06     	sub	w6, w16, w6, lsl #18
    1614: 4d064c06     	<unknown>
    1618: 4f064e06     	<unknown>
    161c: 00000b44     	udf	#0xb44
    1620: 00000050     	udf	#0x50
    1624: 00000094     	udf	#0x94
    1628: 00003c74     	udf	#0x3c74
    162c: 000002b0     	udf	#0x2b0
    1630: fffc7b08     	<unknown>
    1634: ffffffff     	<unknown>
    1638: 900e44ff     	adrp	xzr, 0x1c89d000
    163c: 1d0c5c01     	<unknown>
    1640: 94029360     	bl	0xa63c0
    1644: 96069504     	bl	0xfffffffff81a6a54
    1648: 980a9708     	ldrsw	x8, 0x16928
    164c: 9a0e990c     	<unknown>
    1650: 9c129b10     	ldr	q16, 0x269b0
    1654: 9d169e14     	<unknown>
    1658: f4030a18     	cbgt	x24, x3, 0x1798
    165c: 901f0c01     	adrp	x1, 0x3e181000
    1660: 000e5c01     	<unknown>
    1664: d6d5d4d3     	<unknown>
    1668: dad9d8d7     	<unknown>
    166c: dddedcdb     	<unknown>
    1670: 00000b44     	udf	#0xb44
    1674: 00000030     	udf	#0x30
    1678: 000000e8     	udf	#0xe8
    167c: 00004ae8     	udf	#0x4ae8
    1680: 0000036c     	udf	#0x36c
    1684: fffc8308     	<unknown>
    1688: ffffffff     	<unknown>
    168c: 100e44ff     	adr	xzr, 0x1df28
    1690: 101d0c44     	adr	x4, 0x3b818
    1694: 049d029e     	<unknown>
    1698: 02fc030a     	<unknown>
    169c: 44101f0c     	<unknown>
    16a0: ddde000e     	<unknown>
    16a4: 00000b44     	udf	#0xb44
    16a8: 00000030     	udf	#0x30
    16ac: 0000011c     	udf	#0x11c
    16b0: 00004e20     	udf	#0x4e20
    16b4: 000008a0     	udf	#0x8a0
    16b8: fffc7708     	<unknown>
    16bc: ffffffff     	<unknown>
    16c0: 300e44ff     	adr	xzr, 0x1df5d
    16c4: 101d0c48     	adr	x8, 0x3b84c
    16c8: 049d029e     	<unknown>
    16cc: 0708030a     	<unknown>
    16d0: 48301f0c     	<unknown>
    16d4: ddde000e     	<unknown>
    16d8: 00000b44     	udf	#0xb44
    16dc: 00000000     	udf	#0x0

Disassembly of section .text:

00000000000016e0 <.text>:
    16e0: d503249f     	bti	j
    16e4: d280001d     	mov	x29, #0x0               // =0
    16e8: d280001e     	mov	x30, #0x0               // =0
    16ec: 910003e0     	mov	x0, sp
    16f0: 14000001     	b	0x16f4 <.text+0x14>
    16f4: d503233f     	paciasp
    16f8: d10103ff     	sub	sp, sp, #0x40
    16fc: a9037bfd     	stp	x29, x30, [sp, #0x30]
    1700: 9100c3fd     	add	x29, sp, #0x30
    1704: d0000048     	adrp	x8, 0xb000
    1708: d0000049     	adrp	x9, 0xb000
    170c: 6f00e400     	movi	v0.2d, #0000000000000000
    1710: f9404108     	ldr	x8, [x8, #0x80]
    1714: f9404529     	ldr	x9, [x9, #0x88]
    1718: cb080128     	sub	x8, x9, x8
    171c: f100051f     	cmp	x8, #0x1
    1720: ad0083e0     	stp	q0, q0, [sp, #0x10]
    1724: 3d8003e0     	str	q0, [sp]
    1728: 5400008b     	b.lt	0x1738 <.text+0x58>
    172c: d503201f     	nop
    1730: 1006d2c8     	adr	x8, 0xf188
    1734: f9000be8     	str	x8, [sp, #0x10]
    1738: d0000042     	adrp	x2, 0xb000
    173c: 910003e3     	mov	x3, sp
    1740: aa1f03e1     	mov	x1, xzr
    1744: f9404842     	ldr	x2, [x2, #0x90]
    1748: 94001592     	bl	0x6d90 <__libc_init@plt>
    174c: d503245f     	bti	c
    1750: b4000060     	cbz	x0, 0x175c <.text+0x7c>
    1754: aa0003f0     	mov	x16, x0
    1758: d61f0200     	br	x16
    175c: d65f03c0     	ret
    1760: d503245f     	bti	c
    1764: aa0003e1     	mov	x1, x0
    1768: d503201f     	nop
    176c: 10ffff00     	adr	x0, 0x174c <.text+0x6c>
    1770: d503201f     	nop
    1774: 1006d1a2     	adr	x2, 0xf1a8
    1778: 1400158a     	b	0x6da0 <__cxa_atexit@plt>
    177c: d503245f     	bti	c
    1780: d503201f     	nop
    1784: 1006d123     	adr	x3, 0xf1a8
    1788: 1400158a     	b	0x6db0 <__register_atfork@plt>
    178c: d503233f     	paciasp
    1790: a9be7bfd     	stp	x29, x30, [sp, #-0x20]!
    1794: a9014ff4     	stp	x20, x19, [sp, #0x10]
    1798: 910003fd     	mov	x29, sp
    179c: d0000053     	adrp	x19, 0xb000
    17a0: d0000048     	adrp	x8, 0xb000
    17a4: f9404273     	ldr	x19, [x19, #0x80]
    17a8: f9404508     	ldr	x8, [x8, #0x88]
    17ac: eb130108     	subs	x8, x8, x19
    17b0: 54000100     	b.eq	0x17d0 <.text+0xf0>
    17b4: 9343fd08     	asr	x8, x8, #3
    17b8: 8b080e69     	add	x9, x19, x8, lsl #3
    17bc: d1000514     	sub	x20, x8, #0x1
    17c0: f85f8129     	ldur	x9, [x9, #-0x8]
    17c4: d63f0120     	blr	x9
    17c8: aa1403e8     	mov	x8, x20
    17cc: b5ffff74     	cbnz	x20, 0x17b8 <.text+0xd8>
    17d0: a9414ff4     	ldp	x20, x19, [sp, #0x10]
    17d4: a8c27bfd     	ldp	x29, x30, [sp], #0x20
    17d8: d50323bf     	autiasp
    17dc: d65f03c0     	ret
    17e0: 6db83bef     	stp	d15, d14, [sp, #-0x80]!
    17e4: 6d0133ed     	stp	d13, d12, [sp, #0x10]
    17e8: 6d022beb     	stp	d11, d10, [sp, #0x20]
    17ec: 6d0323e9     	stp	d9, d8, [sp, #0x30]
    17f0: a9047bfd     	stp	x29, x30, [sp, #0x40]
    17f4: a9055ffc     	stp	x28, x23, [sp, #0x50]
    17f8: a90657f6     	stp	x22, x21, [sp, #0x60]
    17fc: a9074ff4     	stp	x20, x19, [sp, #0x70]
    1800: 910103fd     	add	x29, sp, #0x40
    1804: d1400bff     	sub	sp, sp, #0x2, lsl #12   // =0x2000
    1808: d10283ff     	sub	sp, sp, #0xa0
    180c: f0ffffe9     	adrp	x9, 0x0
    1810: f0ffffe8     	adrp	x8, 0x0
    1814: 0f000461     	movi	v1.2s, #0x3
    1818: 3dc35100     	ldr	q0, [x8, #0xd40]
    181c: 528a0b8a     	mov	w10, #0x505c            // =20572
    1820: 910263f5     	add	x21, sp, #0x98
    1824: f0ffffe8     	adrp	x8, 0x0
    1828: 52800ccb     	mov	w11, #0x66              // =102
    182c: 390203ff     	strb	wzr, [sp, #0x80]
    1830: fd46e522     	ldr	d2, [x9, #0xdc8]
    1834: 528007c9     	mov	w9, #0x3e               // =62
    1838: fd46ed09     	ldr	d9, [x8, #0xdd8]
    183c: fd0033e1     	str	d1, [sp, #0x60]
    1840: f0ffffe8     	adrp	x8, 0x0
    1844: fd46c908     	ldr	d8, [x8, #0xd90]
    1848: 52800028     	mov	w8, #0x1                // =1
    184c: 390173eb     	strb	w11, [sp, #0x5c]
    1850: 390233e8     	strb	w8, [sp, #0x8c]
    1854: 390263e8     	strb	w8, [sp, #0x98]
    1858: 3903e3e8     	strb	w8, [sp, #0xf8]
    185c: 3904e3e8     	strb	w8, [sp, #0x138]
    1860: 3906e3e8     	strb	w8, [sp, #0x1b8]
    1864: 3907e3e8     	strb	w8, [sp, #0x1f8]
    1868: 3908e3e8     	strb	w8, [sp, #0x238]
    186c: 390ae3e8     	strb	w8, [sp, #0x2b8]
    1870: 390be3e8     	strb	w8, [sp, #0x2f8]
    1874: 390ce3e8     	strb	w8, [sp, #0x338]
    1878: 390ee3e8     	strb	w8, [sp, #0x3b8]
    187c: 390fe3e8     	strb	w8, [sp, #0x3f8]
    1880: 3910e3e8     	strb	w8, [sp, #0x438]
    1884: 391263e8     	strb	w8, [sp, #0x498]
    1888: 3913e3e8     	strb	w8, [sp, #0x4f8]
    188c: 3914e3e8     	strb	w8, [sp, #0x538]
    1890: 391663e8     	strb	w8, [sp, #0x598]
    1894: 3917e3e8     	strb	w8, [sp, #0x5f8]
    1898: 3918e3e8     	strb	w8, [sp, #0x638]
    189c: 391ae3e8     	strb	w8, [sp, #0x6b8]
    18a0: 391be3e8     	strb	w8, [sp, #0x6f8]
    18a4: 391ce3e8     	strb	w8, [sp, #0x738]
    18a8: 391ee3e8     	strb	w8, [sp, #0x7b8]
    18ac: 391fe3e8     	strb	w8, [sp, #0x7f8]
    18b0: 3920e3e8     	strb	w8, [sp, #0x838]
    18b4: 392263e8     	strb	w8, [sp, #0x898]
    18b8: 3923e3e8     	strb	w8, [sp, #0x8f8]
    18bc: 3924e3e8     	strb	w8, [sp, #0x938]
    18c0: 393e82a8     	strb	w8, [x21, #0xfa0]
    18c4: 393d82a8     	strb	w8, [x21, #0xf60]
    18c8: 393c82a8     	strb	w8, [x21, #0xf20]
    18cc: 393ce3e8     	strb	w8, [sp, #0xf38]
    18d0: 393be3e8     	strb	w8, [sp, #0xef8]
    18d4: 393a63e8     	strb	w8, [sp, #0xe98]
    18d8: 392663e8     	strb	w8, [sp, #0x998]
    18dc: 3938e3e8     	strb	w8, [sp, #0xe38]
    18e0: 3937e3e8     	strb	w8, [sp, #0xdf8]
    18e4: 3936e3e8     	strb	w8, [sp, #0xdb8]
    18e8: 3934e3e8     	strb	w8, [sp, #0xd38]
    18ec: 3933e3e8     	strb	w8, [sp, #0xcf8]
    18f0: 3932e3e8     	strb	w8, [sp, #0xcb8]
    18f4: 3927e3e8     	strb	w8, [sp, #0x9f8]
    18f8: 3930e3e8     	strb	w8, [sp, #0xc38]
    18fc: 392fe3e8     	strb	w8, [sp, #0xbf8]
    1900: 392ee3e8     	strb	w8, [sp, #0xbb8]
    1904: 3928e3e8     	strb	w8, [sp, #0xa38]
    1908: 392ce3e8     	strb	w8, [sp, #0xb38]
    190c: 392be3e8     	strb	w8, [sp, #0xaf8]
    1910: 392a63e8     	strb	w8, [sp, #0xa98]
    1914: fc06c3e9     	stur	d9, [sp, #0x6c]
    1918: fd003fe8     	str	d8, [sp, #0x78]
    191c: 3901a3e9     	strb	w9, [sp, #0x68]
    1920: 52800149     	mov	w9, #0xa                // =10
    1924: 3901d3e9     	strb	w9, [sp, #0x74]
    1928: f0ffffe9     	adrp	x9, 0x0
    192c: fd002be2     	str	d2, [sp, #0x50]
    1930: 2910ffff     	stp	wzr, wzr, [sp, #0x84]
    1934: 3902e3ff     	strb	wzr, [sp, #0xb8]
    1938: 390363ff     	strb	wzr, [sp, #0xd8]
    193c: 7900b3ea     	strh	w10, [sp, #0x58]
    1940: f0ffffea     	adrp	x10, 0x0
    1944: 3d8013e0     	str	q0, [sp, #0x40]
    1948: 3dc34520     	ldr	q0, [x9, #0xd10]
    194c: f0ffffe9     	adrp	x9, 0x0
    1950: 3dc35521     	ldr	q1, [x9, #0xd50]
    1954: f0ffffe9     	adrp	x9, 0x0
    1958: fd46cd4a     	ldr	d10, [x10, #0xd98]
    195c: d280008a     	mov	x10, #0x4               // =4
    1960: fc0642a9     	stur	d9, [x21, #0x64]
    1964: f2c0010a     	movk	x10, #0x8, lsl #32
    1968: fc0042aa     	stur	d10, [x21, #0x4]
    196c: 3dc35922     	ldr	q2, [x9, #0xd60]
    1970: f0ffffe9     	adrp	x9, 0x0
    1974: ad0007e0     	stp	q0, q1, [sp]
    1978: fd46d520     	ldr	d0, [x9, #0xda8]
    197c: 52868d69     	mov	w9, #0x346b             // =13419
    1980: 390463ff     	strb	wzr, [sp, #0x118]
    1984: 79006be9     	strh	w9, [sp, #0x34]
    1988: f0ffffe9     	adrp	x9, 0x0
    198c: fd46e12b     	ldr	d11, [x9, #0xdc0]
    1990: f0ffffe9     	adrp	x9, 0x0
    1994: bd0033e0     	str	s0, [sp, #0x30]
    1998: 6f00e400     	movi	v0.2d, #0000000000000000
    199c: 3d800be2     	str	q2, [sp, #0x20]
    19a0: fd46d92c     	ldr	d12, [x9, #0xdb0]
    19a4: f0ffffe9     	adrp	x9, 0x0
    19a8: 914006b6     	add	x22, x21, #0x1, lsl #12 // =0x1000
    19ac: 393d82c8     	strb	w8, [x22, #0xf60]
    19b0: 393e82c8     	strb	w8, [x22, #0xfa0]
    19b4: 3d8006a0     	str	q0, [x21, #0x10]
    19b8: 391a82c8     	strb	w8, [x22, #0x6a0]
    19bc: 391982c8     	strb	w8, [x22, #0x660]
    19c0: 391882c8     	strb	w8, [x22, #0x620]
    19c4: 391682c8     	strb	w8, [x22, #0x5a0]
    19c8: 391582c8     	strb	w8, [x22, #0x560]
    19cc: 391402c8     	strb	w8, [x22, #0x500]
    19d0: 391282c8     	strb	w8, [x22, #0x4a0]
    19d4: 391182c8     	strb	w8, [x22, #0x460]
    19d8: 391002c8     	strb	w8, [x22, #0x400]
    19dc: 390e82c8     	strb	w8, [x22, #0x3a0]
    19e0: 390d82c8     	strb	w8, [x22, #0x360]
    19e4: 390c02c8     	strb	w8, [x22, #0x300]
    19e8: 390a82c8     	strb	w8, [x22, #0x2a0]
    19ec: 390982c8     	strb	w8, [x22, #0x260]
    19f0: 390882c8     	strb	w8, [x22, #0x220]
    19f4: 390682c8     	strb	w8, [x22, #0x1a0]
    19f8: 390582c8     	strb	w8, [x22, #0x160]
    19fc: 390402c8     	strb	w8, [x22, #0x100]
    1a00: 390282c8     	strb	w8, [x22, #0xa0]
    1a04: 390182c8     	strb	w8, [x22, #0x60]
    1a08: 390082c8     	strb	w8, [x22, #0x20]
    1a0c: 391d82c8     	strb	w8, [x22, #0x760]
    1a10: 391e82c8     	strb	w8, [x22, #0x7a0]
    1a14: 392002c8     	strb	w8, [x22, #0x800]
    1a18: 392182c8     	strb	w8, [x22, #0x860]
    1a1c: 392282c8     	strb	w8, [x22, #0x8a0]
    1a20: 392402c8     	strb	w8, [x22, #0x900]
    1a24: 392582c8     	strb	w8, [x22, #0x960]
    1a28: 392682c8     	strb	w8, [x22, #0x9a0]
    1a2c: 392882c8     	strb	w8, [x22, #0xa20]
    1a30: 392982c8     	strb	w8, [x22, #0xa60]
    1a34: 392a82c8     	strb	w8, [x22, #0xaa0]
    1a38: 392c02c8     	strb	w8, [x22, #0xb00]
    1a3c: 392d82c8     	strb	w8, [x22, #0xb60]
    1a40: 392e82c8     	strb	w8, [x22, #0xba0]
    1a44: 393002c8     	strb	w8, [x22, #0xc00]
    1a48: 393182c8     	strb	w8, [x22, #0xc60]
    1a4c: 393282c8     	strb	w8, [x22, #0xca0]
    1a50: 393482c8     	strb	w8, [x22, #0xd20]
    1a54: 393582c8     	strb	w8, [x22, #0xd60]
    1a58: 393682c8     	strb	w8, [x22, #0xda0]
    1a5c: 393802c8     	strb	w8, [x22, #0xe00]
    1a60: 393982c8     	strb	w8, [x22, #0xe60]
    1a64: 393a82c8     	strb	w8, [x22, #0xea0]
    1a68: 393c02c8     	strb	w8, [x22, #0xf00]
    1a6c: fd46f12d     	ldr	d13, [x9, #0xde0]
    1a70: f0ffffe9     	adrp	x9, 0x0
    1a74: 390563ff     	strb	wzr, [sp, #0x158]
    1a78: fd46e92e     	ldr	d14, [x9, #0xdd0]
    1a7c: f0ffffe9     	adrp	x9, 0x0
    1a80: fc0442ac     	stur	d12, [x21, #0x44]
    1a84: fd46dd2f     	ldr	d15, [x9, #0xdb8]
    1a88: 910412a9     	add	x9, x21, #0x104
    1a8c: fc0842ad     	stur	d13, [x21, #0x84]
    1a90: f900012a     	str	x10, [x9]
    1a94: d280008a     	mov	x10, #0x4               // =4
    1a98: f2c000aa     	movk	x10, #0x5, lsl #32
    1a9c: fc0a42ae     	stur	d14, [x21, #0xa4]
    1aa0: 910492a9     	add	x9, x21, #0x124
    1aa4: fc0c42af     	stur	d15, [x21, #0xc4]
    1aa8: f900012a     	str	x10, [x9]
    1aac: d28000aa     	mov	x10, #0x5               // =5
    1ab0: f2c000ca     	movk	x10, #0x6, lsl #32
    1ab4: 3d801ea0     	str	q0, [x21, #0x70]
    1ab8: 910512a9     	add	x9, x21, #0x144
    1abc: 3d8016a0     	str	q0, [x21, #0x50]
    1ac0: f900012a     	str	x10, [x9]
    1ac4: d28000aa     	mov	x10, #0x5               // =5
    1ac8: f2c000ea     	movk	x10, #0x7, lsl #32
    1acc: 3d802ea0     	str	q0, [x21, #0xb0]
    1ad0: 910592a9     	add	x9, x21, #0x164
    1ad4: 3d8026a0     	str	q0, [x21, #0x90]
    1ad8: f900012a     	str	x10, [x9]
    1adc: d28000ca     	mov	x10, #0x6               // =6
    1ae0: f2c000ea     	movk	x10, #0x7, lsl #32
    1ae4: 3905e3ff     	strb	wzr, [sp, #0x178]
    1ae8: 910612a9     	add	x9, x21, #0x184
    1aec: 3d8036a0     	str	q0, [x21, #0xd0]
    1af0: f900012a     	str	x10, [x9]
    1af4: d28000ca     	mov	x10, #0x6               // =6
    1af8: f2c000aa     	movk	x10, #0x5, lsl #32
    1afc: fc0e42a8     	stur	d8, [x21, #0xe4]
    1b00: 910692a9     	add	x9, x21, #0x1a4
    1b04: 3d803ea0     	str	q0, [x21, #0xf0]
    1b08: f900012a     	str	x10, [x9]
    1b0c: d28000ea     	mov	x10, #0x7               // =7
    1b10: f2c000aa     	movk	x10, #0x5, lsl #32
    1b14: 390663ff     	strb	wzr, [sp, #0x198]
    1b18: 910712a9     	add	x9, x21, #0x1c4
    1b1c: 3d8046a0     	str	q0, [x21, #0x110]
    1b20: f900012a     	str	x10, [x9]
    1b24: d28000ea     	mov	x10, #0x7               // =7
    1b28: f2c000ca     	movk	x10, #0x6, lsl #32
    1b2c: 3d804ea0     	str	q0, [x21, #0x130]
    1b30: 910792a9     	add	x9, x21, #0x1e4
    1b34: 390763ff     	strb	wzr, [sp, #0x1d8]
    1b38: f900012a     	str	x10, [x9]
    1b3c: d280010a     	mov	x10, #0x8               // =8
    1b40: f2c0018a     	movk	x10, #0xc, lsl #32
    1b44: 3d8056a0     	str	q0, [x21, #0x150]
    1b48: 910812a9     	add	x9, x21, #0x204
    1b4c: 3d805ea0     	str	q0, [x21, #0x170]
    1b50: f900012a     	str	x10, [x9]
    1b54: d280010a     	mov	x10, #0x8               // =8
    1b58: f2c0012a     	movk	x10, #0x9, lsl #32
    1b5c: 390863ff     	strb	wzr, [sp, #0x218]
    1b60: 910892a9     	add	x9, x21, #0x224
    1b64: 3d8066a0     	str	q0, [x21, #0x190]
    1b68: f900012a     	str	x10, [x9]
    1b6c: d280012a     	mov	x10, #0x9               // =9
    1b70: f2c0014a     	movk	x10, #0xa, lsl #32
    1b74: 3d806ea0     	str	q0, [x21, #0x1b0]
    1b78: 910912a9     	add	x9, x21, #0x244
    1b7c: 390963ff     	strb	wzr, [sp, #0x258]
    1b80: f900012a     	str	x10, [x9]
    1b84: d280012a     	mov	x10, #0x9               // =9
    1b88: f2c0016a     	movk	x10, #0xb, lsl #32
    1b8c: 3d8076a0     	str	q0, [x21, #0x1d0]
    1b90: 910992a9     	add	x9, x21, #0x264
    1b94: 3909e3ff     	strb	wzr, [sp, #0x278]
    1b98: f900012a     	str	x10, [x9]
    1b9c: d280014a     	mov	x10, #0xa               // =10
    1ba0: f2c0016a     	movk	x10, #0xb, lsl #32
    1ba4: 3d807ea0     	str	q0, [x21, #0x1f0]
    1ba8: 910a12a9     	add	x9, x21, #0x284
    1bac: 390a63ff     	strb	wzr, [sp, #0x298]
    1bb0: f900012a     	str	x10, [x9]
    1bb4: d280014a     	mov	x10, #0xa               // =10
    1bb8: f2c0012a     	movk	x10, #0x9, lsl #32
    1bbc: 3d8086a0     	str	q0, [x21, #0x210]
    1bc0: 910a92a9     	add	x9, x21, #0x2a4
    1bc4: 3d808ea0     	str	q0, [x21, #0x230]
    1bc8: f900012a     	str	x10, [x9]
    1bcc: d280016a     	mov	x10, #0xb               // =11
    1bd0: f2c0012a     	movk	x10, #0x9, lsl #32
    1bd4: 390b63ff     	strb	wzr, [sp, #0x2d8]
    1bd8: 910b12a9     	add	x9, x21, #0x2c4
    1bdc: 3d8096a0     	str	q0, [x21, #0x250]
    1be0: f900012a     	str	x10, [x9]
    1be4: d280016a     	mov	x10, #0xb               // =11
    1be8: f2c0014a     	movk	x10, #0xa, lsl #32
    1bec: 3d809ea0     	str	q0, [x21, #0x270]
    1bf0: 910b92a9     	add	x9, x21, #0x2e4
    1bf4: 390c63ff     	strb	wzr, [sp, #0x318]
    1bf8: f900012a     	str	x10, [x9]
    1bfc: d280018a     	mov	x10, #0xc               // =12
    1c00: f2c0020a     	movk	x10, #0x10, lsl #32
    1c04: 3d80a6a0     	str	q0, [x21, #0x290]
    1c08: 910c12a9     	add	x9, x21, #0x304
    1c0c: 3d80aea0     	str	q0, [x21, #0x2b0]
    1c10: f900012a     	str	x10, [x9]
    1c14: d280018a     	mov	x10, #0xc               // =12
    1c18: f2c001aa     	movk	x10, #0xd, lsl #32
    1c1c: 390d63ff     	strb	wzr, [sp, #0x358]
    1c20: 910c92a9     	add	x9, x21, #0x324
    1c24: 3d80b6a0     	str	q0, [x21, #0x2d0]
    1c28: f900012a     	str	x10, [x9]
    1c2c: d28001aa     	mov	x10, #0xd               // =13
    1c30: f2c001ca     	movk	x10, #0xe, lsl #32
    1c34: 390de3ff     	strb	wzr, [sp, #0x378]
    1c38: 910d12a9     	add	x9, x21, #0x344
    1c3c: 3d80bea0     	str	q0, [x21, #0x2f0]
    1c40: f900012a     	str	x10, [x9]
    1c44: d28001aa     	mov	x10, #0xd               // =13
    1c48: f2c001ea     	movk	x10, #0xf, lsl #32
    1c4c: 390e63ff     	strb	wzr, [sp, #0x398]
    1c50: 910d92a9     	add	x9, x21, #0x364
    1c54: 3d80c6a0     	str	q0, [x21, #0x310]
    1c58: f900012a     	str	x10, [x9]
    1c5c: d28001ca     	mov	x10, #0xe               // =14
    1c60: f2c001ea     	movk	x10, #0xf, lsl #32
    1c64: 3d80cea0     	str	q0, [x21, #0x330]
    1c68: 910e12a9     	add	x9, x21, #0x384
    1c6c: 390f63ff     	strb	wzr, [sp, #0x3d8]
    1c70: f900012a     	str	x10, [x9]
    1c74: d28001ca     	mov	x10, #0xe               // =14
    1c78: f2c001aa     	movk	x10, #0xd, lsl #32
    1c7c: 3d80d6a0     	str	q0, [x21, #0x350]
    1c80: 910e92a9     	add	x9, x21, #0x3a4
    1c84: 3d80dea0     	str	q0, [x21, #0x370]
    1c88: f900012a     	str	x10, [x9]
    1c8c: d28001ea     	mov	x10, #0xf               // =15
    1c90: f2c001aa     	movk	x10, #0xd, lsl #32
    1c94: 391063ff     	strb	wzr, [sp, #0x418]
    1c98: 910f12a9     	add	x9, x21, #0x3c4
    1c9c: 3d80e6a0     	str	q0, [x21, #0x390]
    1ca0: f900012a     	str	x10, [x9]
    1ca4: d28001ea     	mov	x10, #0xf               // =15
    1ca8: f2c001ca     	movk	x10, #0xe, lsl #32
    1cac: 3d80eea0     	str	q0, [x21, #0x3b0]
    1cb0: 910f92a9     	add	x9, x21, #0x3e4
    1cb4: 391163ff     	strb	wzr, [sp, #0x458]
    1cb8: f900012a     	str	x10, [x9]
    1cbc: d280020a     	mov	x10, #0x10              // =16
    1cc0: f2c0028a     	movk	x10, #0x14, lsl #32
    1cc4: 3911e3ff     	strb	wzr, [sp, #0x478]
    1cc8: 911012a9     	add	x9, x21, #0x404
    1ccc: 3d80f6a0     	str	q0, [x21, #0x3d0]
    1cd0: f900012a     	str	x10, [x9]
    1cd4: d280020a     	mov	x10, #0x10              // =16
    1cd8: f2c0022a     	movk	x10, #0x11, lsl #32
    1cdc: 3d80fea0     	str	q0, [x21, #0x3f0]
    1ce0: 911092a9     	add	x9, x21, #0x424
    1ce4: 3d8106a0     	str	q0, [x21, #0x410]
    1ce8: f900012a     	str	x10, [x9]
    1cec: d280022a     	mov	x10, #0x11              // =17
    1cf0: f2c0024a     	movk	x10, #0x12, lsl #32
    1cf4: 3912e3ff     	strb	wzr, [sp, #0x4b8]
    1cf8: 911112a9     	add	x9, x21, #0x444
    1cfc: 3d810ea0     	str	q0, [x21, #0x430]
    1d00: f900012a     	str	x10, [x9]
    1d04: d280022a     	mov	x10, #0x11              // =17
    1d08: f2c0026a     	movk	x10, #0x13, lsl #32
    1d0c: 391363ff     	strb	wzr, [sp, #0x4d8]
    1d10: 911192a9     	add	x9, x21, #0x464
    1d14: 3d8116a0     	str	q0, [x21, #0x450]
    1d18: f900012a     	str	x10, [x9]
    1d1c: d280024a     	mov	x10, #0x12              // =18
    1d20: f2c0026a     	movk	x10, #0x13, lsl #32
    1d24: 3d811ea0     	str	q0, [x21, #0x470]
    1d28: 911212a9     	add	x9, x21, #0x484
    1d2c: 391463ff     	strb	wzr, [sp, #0x518]
    1d30: f900012a     	str	x10, [x9]
    1d34: d280024a     	mov	x10, #0x12              // =18
    1d38: f2c0022a     	movk	x10, #0x11, lsl #32
    1d3c: 3d8126a0     	str	q0, [x21, #0x490]
    1d40: 911292a9     	add	x9, x21, #0x4a4
    1d44: 3d812ea0     	str	q0, [x21, #0x4b0]
    1d48: f900012a     	str	x10, [x9]
    1d4c: d280026a     	mov	x10, #0x13              // =19
    1d50: f2c0022a     	movk	x10, #0x11, lsl #32
    1d54: 391563ff     	strb	wzr, [sp, #0x558]
    1d58: 911312a9     	add	x9, x21, #0x4c4
    1d5c: 3d8136a0     	str	q0, [x21, #0x4d0]
    1d60: f900012a     	str	x10, [x9]
    1d64: d280026a     	mov	x10, #0x13              // =19
    1d68: f2c0024a     	movk	x10, #0x12, lsl #32
    1d6c: 3915e3ff     	strb	wzr, [sp, #0x578]
    1d70: 911392a9     	add	x9, x21, #0x4e4
    1d74: 3d813ea0     	str	q0, [x21, #0x4f0]
    1d78: f900012a     	str	x10, [x9]
    1d7c: d280028a     	mov	x10, #0x14              // =20
    1d80: f2c0030a     	movk	x10, #0x18, lsl #32
    1d84: 3d8146a0     	str	q0, [x21, #0x510]
    1d88: 911412a9     	add	x9, x21, #0x504
    1d8c: 3916e3ff     	strb	wzr, [sp, #0x5b8]
    1d90: f900012a     	str	x10, [x9]
    1d94: d280028a     	mov	x10, #0x14              // =20
    1d98: f2c002aa     	movk	x10, #0x15, lsl #32
    1d9c: 3d814ea0     	str	q0, [x21, #0x530]
    1da0: 911492a9     	add	x9, x21, #0x524
    1da4: 391763ff     	strb	wzr, [sp, #0x5d8]
    1da8: f900012a     	str	x10, [x9]
    1dac: d28002aa     	mov	x10, #0x15              // =21
    1db0: f2c002ca     	movk	x10, #0x16, lsl #32
    1db4: 3d8156a0     	str	q0, [x21, #0x550]
    1db8: 911512a9     	add	x9, x21, #0x544
    1dbc: 3d815ea0     	str	q0, [x21, #0x570]
    1dc0: f900012a     	str	x10, [x9]
    1dc4: d28002aa     	mov	x10, #0x15              // =21
    1dc8: f2c002ea     	movk	x10, #0x17, lsl #32
    1dcc: 391863ff     	strb	wzr, [sp, #0x618]
    1dd0: 911592a9     	add	x9, x21, #0x564
    1dd4: 3d8166a0     	str	q0, [x21, #0x590]
    1dd8: f900012a     	str	x10, [x9]
    1ddc: d28002ca     	mov	x10, #0x16              // =22
    1de0: f2c002ea     	movk	x10, #0x17, lsl #32
    1de4: 3d816ea0     	str	q0, [x21, #0x5b0]
    1de8: 911612a9     	add	x9, x21, #0x584
    1dec: 391963ff     	strb	wzr, [sp, #0x658]
    1df0: f900012a     	str	x10, [x9]
    1df4: d28002ca     	mov	x10, #0x16              // =22
    1df8: f2c002aa     	movk	x10, #0x15, lsl #32
    1dfc: 3d8176a0     	str	q0, [x21, #0x5d0]
    1e00: 911692a9     	add	x9, x21, #0x5a4
    1e04: 3919e3ff     	strb	wzr, [sp, #0x678]
    1e08: f900012a     	str	x10, [x9]
    1e0c: d28002ea     	mov	x10, #0x17              // =23
    1e10: f2c002aa     	movk	x10, #0x15, lsl #32
    1e14: 3d817ea0     	str	q0, [x21, #0x5f0]
    1e18: 911712a9     	add	x9, x21, #0x5c4
    1e1c: 391a63ff     	strb	wzr, [sp, #0x698]
    1e20: f900012a     	str	x10, [x9]
    1e24: d28002ea     	mov	x10, #0x17              // =23
    1e28: f2c002ca     	movk	x10, #0x16, lsl #32
    1e2c: 3d8186a0     	str	q0, [x21, #0x610]
    1e30: 911792a9     	add	x9, x21, #0x5e4
    1e34: 3d818ea0     	str	q0, [x21, #0x630]
    1e38: f900012a     	str	x10, [x9]
    1e3c: d280030a     	mov	x10, #0x18              // =24
    1e40: f2c0038a     	movk	x10, #0x1c, lsl #32
    1e44: 391b63ff     	strb	wzr, [sp, #0x6d8]
    1e48: 911812a9     	add	x9, x21, #0x604
    1e4c: 3d8196a0     	str	q0, [x21, #0x650]
    1e50: f900012a     	str	x10, [x9]
    1e54: d280030a     	mov	x10, #0x18              // =24
    1e58: f2c0032a     	movk	x10, #0x19, lsl #32
    1e5c: 3d819ea0     	str	q0, [x21, #0x670]
    1e60: 911892a9     	add	x9, x21, #0x624
    1e64: 391c63ff     	strb	wzr, [sp, #0x718]
    1e68: f900012a     	str	x10, [x9]
    1e6c: d280032a     	mov	x10, #0x19              // =25
    1e70: f2c0034a     	movk	x10, #0x1a, lsl #32
    1e74: 3d81a6a0     	str	q0, [x21, #0x690]
    1e78: 911912a9     	add	x9, x21, #0x644
    1e7c: 3d81aea0     	str	q0, [x21, #0x6b0]
    1e80: f900012a     	str	x10, [x9]
    1e84: d280032a     	mov	x10, #0x19              // =25
    1e88: f2c0036a     	movk	x10, #0x1b, lsl #32
    1e8c: 391d63ff     	strb	wzr, [sp, #0x758]
    1e90: 911992a9     	add	x9, x21, #0x664
    1e94: 391de3ff     	strb	wzr, [sp, #0x778]
    1e98: f900012a     	str	x10, [x9]
    1e9c: d280034a     	mov	x10, #0x1a              // =26
    1ea0: f2c0036a     	movk	x10, #0x1b, lsl #32
    1ea4: 3d81b6a0     	str	q0, [x21, #0x6d0]
    1ea8: 911a12a9     	add	x9, x21, #0x684
    1eac: 3d81bea0     	str	q0, [x21, #0x6f0]
    1eb0: f900012a     	str	x10, [x9]
    1eb4: d280034a     	mov	x10, #0x1a              // =26
    1eb8: f2c0032a     	movk	x10, #0x19, lsl #32
    1ebc: 391e63ff     	strb	wzr, [sp, #0x798]
    1ec0: 911a92a9     	add	x9, x21, #0x6a4
    1ec4: 3d81c6a0     	str	q0, [x21, #0x710]
    1ec8: f900012a     	str	x10, [x9]
    1ecc: d280036a     	mov	x10, #0x1b              // =27
    1ed0: f2c0032a     	movk	x10, #0x19, lsl #32
    1ed4: 3d81cea0     	str	q0, [x21, #0x730]
    1ed8: 911b12a9     	add	x9, x21, #0x6c4
    1edc: 391f63ff     	strb	wzr, [sp, #0x7d8]
    1ee0: f900012a     	str	x10, [x9]
    1ee4: d280036a     	mov	x10, #0x1b              // =27
    1ee8: f2c0034a     	movk	x10, #0x1a, lsl #32
    1eec: 3d81d6a0     	str	q0, [x21, #0x750]
    1ef0: 911b92a9     	add	x9, x21, #0x6e4
    1ef4: 3d81dea0     	str	q0, [x21, #0x770]
    1ef8: f900012a     	str	x10, [x9]
    1efc: d280038a     	mov	x10, #0x1c              // =28
    1f00: f2c0040a     	movk	x10, #0x20, lsl #32
    1f04: 392063ff     	strb	wzr, [sp, #0x818]
    1f08: 911c12a9     	add	x9, x21, #0x704
    1f0c: 3d81e6a0     	str	q0, [x21, #0x790]
    1f10: f900012a     	str	x10, [x9]
    1f14: d280038a     	mov	x10, #0x1c              // =28
    1f18: f2c003aa     	movk	x10, #0x1d, lsl #32
    1f1c: 392163ff     	strb	wzr, [sp, #0x858]
    1f20: 911c92a9     	add	x9, x21, #0x724
    1f24: 3d85cea0     	str	q0, [x21, #0x1730]
    1f28: f900012a     	str	x10, [x9]
    1f2c: d28003aa     	mov	x10, #0x1d              // =29
    1f30: f2c003ca     	movk	x10, #0x1e, lsl #32
    1f34: 3d81eea0     	str	q0, [x21, #0x7b0]
    1f38: 911d12a9     	add	x9, x21, #0x744
    1f3c: f90bd7ff     	str	xzr, [sp, #0x17a8]
    1f40: f900012a     	str	x10, [x9]
    1f44: d28003aa     	mov	x10, #0x1d              // =29
    1f48: f2c003ea     	movk	x10, #0x1f, lsl #32
    1f4c: f90bdbff     	str	xzr, [sp, #0x17b0]
    1f50: 911d92a9     	add	x9, x21, #0x764
    1f54: f90bc7ff     	str	xzr, [sp, #0x1788]
    1f58: f900012a     	str	x10, [x9]
    1f5c: d28003ca     	mov	x10, #0x1e              // =30
    1f60: f2c003ea     	movk	x10, #0x1f, lsl #32
    1f64: 3d81f6a0     	str	q0, [x21, #0x7d0]
    1f68: 911e12a9     	add	x9, x21, #0x784
    1f6c: f90bcbff     	str	xzr, [sp, #0x1790]
    1f70: f900012a     	str	x10, [x9]
    1f74: d28003ca     	mov	x10, #0x1e              // =30
    1f78: f2c003aa     	movk	x10, #0x1d, lsl #32
    1f7c: f90bb7ff     	str	xzr, [sp, #0x1768]
    1f80: 911e92a9     	add	x9, x21, #0x7a4
    1f84: f90bbbff     	str	xzr, [sp, #0x1770]
    1f88: f900012a     	str	x10, [x9]
    1f8c: d28003ea     	mov	x10, #0x1f              // =31
    1f90: f2c003aa     	movk	x10, #0x1d, lsl #32
    1f94: 3d85aea0     	str	q0, [x21, #0x16b0]
    1f98: 911f12a9     	add	x9, x21, #0x7c4
    1f9c: f90b97ff     	str	xzr, [sp, #0x1728]
    1fa0: f900012a     	str	x10, [x9]
    1fa4: d28003ea     	mov	x10, #0x1f              // =31
    1fa8: f2c003ca     	movk	x10, #0x1e, lsl #32
    1fac: f90b9bff     	str	xzr, [sp, #0x1730]
    1fb0: 911f92a9     	add	x9, x21, #0x7e4
    1fb4: 3d859ea0     	str	q0, [x21, #0x1670]
    1fb8: f900012a     	str	x10, [x9]
    1fbc: d280040a     	mov	x10, #0x20              // =32
    1fc0: f2c0048a     	movk	x10, #0x24, lsl #32
    1fc4: f90b77ff     	str	xzr, [sp, #0x16e8]
    1fc8: 912012a9     	add	x9, x21, #0x804
    1fcc: f90b7bff     	str	xzr, [sp, #0x16f0]
    1fd0: f900012a     	str	x10, [x9]
    1fd4: d280040a     	mov	x10, #0x20              // =32
    1fd8: f2c0042a     	movk	x10, #0x21, lsl #32
    1fdc: 3d858ea0     	str	q0, [x21, #0x1630]
    1fe0: 912092a9     	add	x9, x21, #0x824
    1fe4: 3921e3ff     	strb	wzr, [sp, #0x878]
    1fe8: f900012a     	str	x10, [x9]
    1fec: d280042a     	mov	x10, #0x21              // =33
    1ff0: f2c0044a     	movk	x10, #0x22, lsl #32
    1ff4: f90b57ff     	str	xzr, [sp, #0x16a8]
    1ff8: 912112a9     	add	x9, x21, #0x844
    1ffc: f90b5bff     	str	xzr, [sp, #0x16b0]
    2000: f900012a     	str	x10, [x9]
    2004: d280042a     	mov	x10, #0x21              // =33
    2008: f2c0046a     	movk	x10, #0x23, lsl #32
    200c: f90b47ff     	str	xzr, [sp, #0x1688]
    2010: 912192a9     	add	x9, x21, #0x864
    2014: 3d81fea0     	str	q0, [x21, #0x7f0]
    2018: f900012a     	str	x10, [x9]
    201c: d280044a     	mov	x10, #0x22              // =34
    2020: f2c0046a     	movk	x10, #0x23, lsl #32
    2024: f90b4bff     	str	xzr, [sp, #0x1690]
    2028: 912212a9     	add	x9, x21, #0x884
    202c: f90b37ff     	str	xzr, [sp, #0x1668]
    2030: f900012a     	str	x10, [x9]
    2034: d280044a     	mov	x10, #0x22              // =34
    2038: f2c0042a     	movk	x10, #0x21, lsl #32
    203c: f90b3bff     	str	xzr, [sp, #0x1670]
    2040: 912292a9     	add	x9, x21, #0x8a4
    2044: 3d856ea0     	str	q0, [x21, #0x15b0]
    2048: f900012a     	str	x10, [x9]
    204c: d280046a     	mov	x10, #0x23              // =35
    2050: f2c0042a     	movk	x10, #0x21, lsl #32
    2054: f90b17ff     	str	xzr, [sp, #0x1628]
    2058: 912312a9     	add	x9, x21, #0x8c4
    205c: f90b1bff     	str	xzr, [sp, #0x1630]
    2060: f900012a     	str	x10, [x9]
    2064: d280046a     	mov	x10, #0x23              // =35
    2068: f2c0044a     	movk	x10, #0x22, lsl #32
    206c: 3d855ea0     	str	q0, [x21, #0x1570]
    2070: 912392a9     	add	x9, x21, #0x8e4
    2074: f90af7ff     	str	xzr, [sp, #0x15e8]
    2078: f900012a     	str	x10, [x9]
    207c: d280048a     	mov	x10, #0x24              // =36
    2080: f2c0050a     	movk	x10, #0x28, lsl #32
    2084: f90afbff     	str	xzr, [sp, #0x15f0]
    2088: 912412a9     	add	x9, x21, #0x904
    208c: f90ae7ff     	str	xzr, [sp, #0x15c8]
    2090: f900012a     	str	x10, [x9]
    2094: d280048a     	mov	x10, #0x24              // =36
    2098: f2c004aa     	movk	x10, #0x25, lsl #32
    209c: f90aebff     	str	xzr, [sp, #0x15d0]
    20a0: 912492a9     	add	x9, x21, #0x924
    20a4: 3d8546a0     	str	q0, [x21, #0x1510]
    20a8: f900012a     	str	x10, [x9]
    20ac: d28004aa     	mov	x10, #0x25              // =37
    20b0: f2c004ca     	movk	x10, #0x26, lsl #32
    20b4: 3922e3ff     	strb	wzr, [sp, #0x8b8]
    20b8: 912512a9     	add	x9, x21, #0x944
    20bc: f90ac7ff     	str	xzr, [sp, #0x1588]
    20c0: f900012a     	str	x10, [x9]
    20c4: d28004aa     	mov	x10, #0x25              // =37
    20c8: f2c004ea     	movk	x10, #0x27, lsl #32
    20cc: f90acbff     	str	xzr, [sp, #0x1590]
    20d0: 912592a9     	add	x9, x21, #0x964
    20d4: f90ab7ff     	str	xzr, [sp, #0x1568]
    20d8: f900012a     	str	x10, [x9]
    20dc: d28004ca     	mov	x10, #0x26              // =38
    20e0: f2c004ea     	movk	x10, #0x27, lsl #32
    20e4: f90abbff     	str	xzr, [sp, #0x1570]
    20e8: 912612a9     	add	x9, x21, #0x984
    20ec: 3d852ea0     	str	q0, [x21, #0x14b0]
    20f0: f900012a     	str	x10, [x9]
    20f4: d28004ca     	mov	x10, #0x26              // =38
    20f8: f2c004aa     	movk	x10, #0x25, lsl #32
    20fc: f90a97ff     	str	xzr, [sp, #0x1528]
    2100: 912692a9     	add	x9, x21, #0x9a4
    2104: f90a9bff     	str	xzr, [sp, #0x1530]
    2108: f900012a     	str	x10, [x9]
    210c: d28004ea     	mov	x10, #0x27              // =39
    2110: f2c004aa     	movk	x10, #0x25, lsl #32
    2114: 3d851ea0     	str	q0, [x21, #0x1470]
    2118: 912712a9     	add	x9, x21, #0x9c4
    211c: 3d8206a0     	str	q0, [x21, #0x810]
    2120: f900012a     	str	x10, [x9]
    2124: d28004ea     	mov	x10, #0x27              // =39
    2128: f2c004ca     	movk	x10, #0x26, lsl #32
    212c: f90a77ff     	str	xzr, [sp, #0x14e8]
    2130: 912792a9     	add	x9, x21, #0x9e4
    2134: f90a7bff     	str	xzr, [sp, #0x14f0]
    2138: f900012a     	str	x10, [x9]
    213c: d280052a     	mov	x10, #0x29              // =41
    2140: f2c0054a     	movk	x10, #0x2a, lsl #32
    2144: f90a67ff     	str	xzr, [sp, #0x14c8]
    2148: 912912a9     	add	x9, x21, #0xa44
    214c: f90a6bff     	str	xzr, [sp, #0x14d0]
    2150: f900012a     	str	x10, [x9]
    2154: d280054a     	mov	x10, #0x2a              // =42
    2158: f2c0056a     	movk	x10, #0x2b, lsl #32
    215c: 3d8506a0     	str	q0, [x21, #0x1410]
    2160: 912a12a9     	add	x9, x21, #0xa84
    2164: 3d820ea0     	str	q0, [x21, #0x830]
    2168: f900012a     	str	x10, [x9]
    216c: d280056a     	mov	x10, #0x2b              // =43
    2170: f2c0052a     	movk	x10, #0x29, lsl #32
    2174: f90a47ff     	str	xzr, [sp, #0x1488]
    2178: 912b12a9     	add	x9, x21, #0xac4
    217c: f90a4bff     	str	xzr, [sp, #0x1490]
    2180: f900012a     	str	x10, [x9]
    2184: d28005aa     	mov	x10, #0x2d              // =45
    2188: f2c005ca     	movk	x10, #0x2e, lsl #32
    218c: f90a37ff     	str	xzr, [sp, #0x1468]
    2190: 912d12a9     	add	x9, x21, #0xb44
    2194: fc0242ab     	stur	d11, [x21, #0x24]
    2198: f900012a     	str	x10, [x9]
    219c: d28005ca     	mov	x10, #0x2e              // =46
    21a0: f2c005ea     	movk	x10, #0x2f, lsl #32
    21a4: f90a3bff     	str	xzr, [sp, #0x1470]
    21a8: 912e12a9     	add	x9, x21, #0xb84
    21ac: 3d84eea0     	str	q0, [x21, #0x13b0]
    21b0: f900012a     	str	x10, [x9]
    21b4: d28005ea     	mov	x10, #0x2f              // =47
    21b8: f2c005aa     	movk	x10, #0x2d, lsl #32
    21bc: f90a17ff     	str	xzr, [sp, #0x1428]
    21c0: 912f12a9     	add	x9, x21, #0xbc4
    21c4: f90a1bff     	str	xzr, [sp, #0x1430]
    21c8: f900012a     	str	x10, [x9]
    21cc: d280062a     	mov	x10, #0x31              // =49
    21d0: f2c0064a     	movk	x10, #0x32, lsl #32
    21d4: 3d84dea0     	str	q0, [x21, #0x1370]
    21d8: 913112a9     	add	x9, x21, #0xc44
    21dc: 392363ff     	strb	wzr, [sp, #0x8d8]
    21e0: f900012a     	str	x10, [x9]
    21e4: d280064a     	mov	x10, #0x32              // =50
    21e8: f2c0066a     	movk	x10, #0x33, lsl #32
    21ec: f909f7ff     	str	xzr, [sp, #0x13e8]
    21f0: 913212a9     	add	x9, x21, #0xc84
    21f4: f909fbff     	str	xzr, [sp, #0x13f0]
    21f8: f900012a     	str	x10, [x9]
    21fc: d280066a     	mov	x10, #0x33              // =51
    2200: f2c0062a     	movk	x10, #0x31, lsl #32
    2204: f909e7ff     	str	xzr, [sp, #0x13c8]
    2208: 913312a9     	add	x9, x21, #0xcc4
    220c: f909ebff     	str	xzr, [sp, #0x13d0]
    2210: f900012a     	str	x10, [x9]
    2214: d28006aa     	mov	x10, #0x35              // =53
    2218: f2c006ca     	movk	x10, #0x36, lsl #32
    221c: 3d84c6a0     	str	q0, [x21, #0x1310]
    2220: 913512a9     	add	x9, x21, #0xd44
    2224: 3d8216a0     	str	q0, [x21, #0x850]
    2228: f900012a     	str	x10, [x9]
    222c: d28006ca     	mov	x10, #0x36              // =54
    2230: f2c006ea     	movk	x10, #0x37, lsl #32
    2234: f909c7ff     	str	xzr, [sp, #0x1388]
    2238: 913612a9     	add	x9, x21, #0xd84
    223c: f909cbff     	str	xzr, [sp, #0x1390]
    2240: f900012a     	str	x10, [x9]
    2244: d28006ea     	mov	x10, #0x37              // =55
    2248: f2c006aa     	movk	x10, #0x35, lsl #32
    224c: f909b7ff     	str	xzr, [sp, #0x1368]
    2250: 913712a9     	add	x9, x21, #0xdc4
    2254: f909bbff     	str	xzr, [sp, #0x1370]
    2258: f900012a     	str	x10, [x9]
    225c: d280070a     	mov	x10, #0x38              // =56
    2260: f2c0072a     	movk	x10, #0x39, lsl #32
    2264: 3d84aea0     	str	q0, [x21, #0x12b0]
    2268: 913892a9     	add	x9, x21, #0xe24
    226c: f90997ff     	str	xzr, [sp, #0x1328]
    2270: f900012a     	str	x10, [x9]
    2274: d280074a     	mov	x10, #0x3a              // =58
    2278: f2c0076a     	movk	x10, #0x3b, lsl #32
    227c: f9099bff     	str	xzr, [sp, #0x1330]
    2280: 913a12a9     	add	x9, x21, #0xe84
    2284: 3d849ea0     	str	q0, [x21, #0x1270]
    2288: f900012a     	str	x10, [x9]
    228c: d280076a     	mov	x10, #0x3b              // =59
    2290: f2c0072a     	movk	x10, #0x39, lsl #32
    2294: f90977ff     	str	xzr, [sp, #0x12e8]
    2298: 913b12a9     	add	x9, x21, #0xec4
    229c: f9097bff     	str	xzr, [sp, #0x12f0]
    22a0: f900012a     	str	x10, [x9]
    22a4: d28007aa     	mov	x10, #0x3d              // =61
    22a8: f2c007ca     	movk	x10, #0x3e, lsl #32
    22ac: 3d848ea0     	str	q0, [x21, #0x1230]
    22b0: 913d12a9     	add	x9, x21, #0xf44
    22b4: f90957ff     	str	xzr, [sp, #0x12a8]
    22b8: f900012a     	str	x10, [x9]
    22bc: d28007ca     	mov	x10, #0x3e              // =62
    22c0: f2c007ea     	movk	x10, #0x3f, lsl #32
    22c4: f9095bff     	str	xzr, [sp, #0x12b0]
    22c8: 913e12a9     	add	x9, x21, #0xf84
    22cc: f90947ff     	str	xzr, [sp, #0x1288]
    22d0: f900012a     	str	x10, [x9]
    22d4: d280080a     	mov	x10, #0x40              // =64
    22d8: f2c0088a     	movk	x10, #0x44, lsl #32
    22dc: 392463ff     	strb	wzr, [sp, #0x918]
    22e0: 52820089     	mov	w9, #0x1004             // =4100
    22e4: f9094bff     	str	xzr, [sp, #0x1290]
    22e8: f8296aaa     	str	x10, [x21, x9]
    22ec: d280086a     	mov	x10, #0x43              // =67
    22f0: f2c0084a     	movk	x10, #0x42, lsl #32
    22f4: f90937ff     	str	xzr, [sp, #0x1268]
    22f8: 52821c89     	mov	w9, #0x10e4             // =4324
    22fc: f9093bff     	str	xzr, [sp, #0x1270]
    2300: f8296aaa     	str	x10, [x21, x9]
    2304: d28008aa     	mov	x10, #0x45              // =69
    2308: f2c008ca     	movk	x10, #0x46, lsl #32
    230c: 3d846ea0     	str	q0, [x21, #0x11b0]
    2310: 52822889     	mov	w9, #0x1144             // =4420
    2314: f90917ff     	str	xzr, [sp, #0x1228]
    2318: f8296aaa     	str	x10, [x21, x9]
    231c: d28008ea     	mov	x10, #0x47              // =71
    2320: f2c008ca     	movk	x10, #0x46, lsl #32
    2324: f9091bff     	str	xzr, [sp, #0x1230]
    2328: 52823c89     	mov	w9, #0x11e4             // =4580
    232c: 3d845ea0     	str	q0, [x21, #0x1170]
    2330: f8296aaa     	str	x10, [x21, x9]
    2334: d280090a     	mov	x10, #0x48              // =72
    2338: f2c0098a     	movk	x10, #0x4c, lsl #32
    233c: 3d821ea0     	str	q0, [x21, #0x870]
    2340: 52824089     	mov	w9, #0x1204             // =4612
    2344: f908f7ff     	str	xzr, [sp, #0x11e8]
    2348: f8296aaa     	str	x10, [x21, x9]
    234c: d280096a     	mov	x10, #0x4b              // =75
    2350: f2c0094a     	movk	x10, #0x4a, lsl #32
    2354: 391c82c8     	strb	w8, [x22, #0x720]
    2358: 5283f488     	mov	w8, #0x1fa4             // =8100
    235c: 52825c89     	mov	w9, #0x12e4             // =4836
    2360: f908fbff     	str	xzr, [sp, #0x11f0]
    2364: f8296aaa     	str	x10, [x21, x9]
    2368: d28009aa     	mov	x10, #0x4d              // =77
    236c: 52826889     	mov	w9, #0x1344             // =4932
    2370: f2c009ca     	movk	x10, #0x4e, lsl #32
    2374: f908e7ff     	str	xzr, [sp, #0x11c8]
    2378: f8296aaa     	str	x10, [x21, x9]
    237c: d28009ea     	mov	x10, #0x4f              // =79
    2380: 52827c89     	mov	w9, #0x13e4             // =5092
    2384: f2c009ca     	movk	x10, #0x4e, lsl #32
    2388: f8296aaa     	str	x10, [x21, x9]
    238c: 52828889     	mov	w9, #0x1444             // =5188
    2390: d2800a2a     	mov	x10, #0x51              // =81
    2394: 3d800ea0     	str	q0, [x21, #0x30]
    2398: f2c00a4a     	movk	x10, #0x52, lsl #32
    239c: f8296aaa     	str	x10, [x21, x9]
    23a0: 52829c89     	mov	w9, #0x14e4             // =5348
    23a4: d2800a6a     	mov	x10, #0x53              // =83
    23a8: f908ebff     	str	xzr, [sp, #0x11d0]
    23ac: f2c00a4a     	movk	x10, #0x52, lsl #32
    23b0: f8296aaa     	str	x10, [x21, x9]
    23b4: 5282a889     	mov	w9, #0x1544             // =5444
    23b8: d2800aaa     	mov	x10, #0x55              // =85
    23bc: 3d8446a0     	str	q0, [x21, #0x1110]
    23c0: f2c00aca     	movk	x10, #0x56, lsl #32
    23c4: f8296aaa     	str	x10, [x21, x9]
    23c8: 5282bc89     	mov	w9, #0x15e4             // =5604
    23cc: d2800aea     	mov	x10, #0x57              // =87
    23d0: 3d8226a0     	str	q0, [x21, #0x890]
    23d4: f2c00aca     	movk	x10, #0x56, lsl #32
    23d8: f8296aaa     	str	x10, [x21, x9]
    23dc: 5282c089     	mov	w9, #0x1604             // =5636
    23e0: d2800b0a     	mov	x10, #0x58              // =88
    23e4: f908c7ff     	str	xzr, [sp, #0x1188]
    23e8: f2c00b8a     	movk	x10, #0x5c, lsl #32
    23ec: f8296aaa     	str	x10, [x21, x9]
    23f0: 5282dc89     	mov	w9, #0x16e4             // =5860
    23f4: d2800b6a     	mov	x10, #0x5b              // =91
    23f8: f908cbff     	str	xzr, [sp, #0x1190]
    23fc: f2c00b4a     	movk	x10, #0x5a, lsl #32
    2400: f8296aaa     	str	x10, [x21, x9]
    2404: 5282e089     	mov	w9, #0x1704             // =5892
    2408: d2800b8a     	mov	x10, #0x5c              // =92
    240c: f908b7ff     	str	xzr, [sp, #0x1168]
    2410: f2c00c0a     	movk	x10, #0x60, lsl #32
    2414: f8296aaa     	str	x10, [x21, x9]
    2418: 5282e609     	mov	w9, #0x1730             // =5936
    241c: 8b0902a9     	add	x9, x21, x9
    2420: 5282e48a     	mov	w10, #0x1724            // =5924
    2424: f908bbff     	str	xzr, [sp, #0x1170]
    2428: 3900413f     	strb	wzr, [x9, #0x10]
    242c: d2800b89     	mov	x9, #0x5c               // =92
    2430: f2c00ba9     	movk	x9, #0x5d, lsl #32
    2434: f82a6aa9     	str	x9, [x21, x10]
    2438: 5282d88a     	mov	w10, #0x16c4            // =5828
    243c: 5282de09     	mov	w9, #0x16f0             // =5872
    2440: 3d842ea0     	str	q0, [x21, #0x10b0]
    2444: 8b0902a9     	add	x9, x21, x9
    2448: f90897ff     	str	xzr, [sp, #0x1128]
    244c: 3900413f     	strb	wzr, [x9, #0x10]
    2450: 5282da09     	mov	w9, #0x16d0             // =5840
    2454: 8b0902a9     	add	x9, x21, x9
    2458: f9089bff     	str	xzr, [sp, #0x1130]
    245c: 3900413f     	strb	wzr, [x9, #0x10]
    2460: d2800b69     	mov	x9, #0x5b               // =91
    2464: f2c00b29     	movk	x9, #0x59, lsl #32
    2468: f82a6aa9     	str	x9, [x21, x10]
    246c: 5282d48a     	mov	w10, #0x16a4            // =5796
    2470: 5282d609     	mov	w9, #0x16b0             // =5808
    2474: 3d841ea0     	str	q0, [x21, #0x1070]
    2478: 8b0902a9     	add	x9, x21, x9
    247c: f90877ff     	str	xzr, [sp, #0x10e8]
    2480: 3900413f     	strb	wzr, [x9, #0x10]
    2484: d2800b49     	mov	x9, #0x5a               // =90
    2488: f2c00b29     	movk	x9, #0x59, lsl #32
    248c: f82a6aa9     	str	x9, [x21, x10]
    2490: d2800b4a     	mov	x10, #0x5a              // =90
    2494: 5282d089     	mov	w9, #0x1684             // =5764
    2498: f2c00b6a     	movk	x10, #0x5b, lsl #32
    249c: f9087bff     	str	xzr, [sp, #0x10f0]
    24a0: f8296aaa     	str	x10, [x21, x9]
    24a4: 5282ce09     	mov	w9, #0x1670             // =5744
    24a8: 5282cc8a     	mov	w10, #0x1664            // =5732
    24ac: 8b0902a9     	add	x9, x21, x9
    24b0: 3d840ea0     	str	q0, [x21, #0x1030]
    24b4: 3900413f     	strb	wzr, [x9, #0x10]
    24b8: d2800b29     	mov	x9, #0x59               // =89
    24bc: f2c00b69     	movk	x9, #0x5b, lsl #32
    24c0: f82a6aa9     	str	x9, [x21, x10]
    24c4: d2800b2a     	mov	x10, #0x59              // =89
    24c8: 5282c889     	mov	w9, #0x1644             // =5700
    24cc: f2c00b4a     	movk	x10, #0x5a, lsl #32
    24d0: f90847ff     	str	xzr, [sp, #0x1088]
    24d4: f8296aaa     	str	x10, [x21, x9]
    24d8: 5282c609     	mov	w9, #0x1630             // =5680
    24dc: 5282c48a     	mov	w10, #0x1624            // =5668
    24e0: 8b0902a9     	add	x9, x21, x9
    24e4: f90857ff     	str	xzr, [sp, #0x10a8]
    24e8: 3900413f     	strb	wzr, [x9, #0x10]
    24ec: d2800b09     	mov	x9, #0x58               // =88
    24f0: f2c00b29     	movk	x9, #0x59, lsl #32
    24f4: f82a6aa9     	str	x9, [x21, x10]
    24f8: 5282b88a     	mov	w10, #0x15c4            // =5572
    24fc: 5282be09     	mov	w9, #0x15f0             // =5616
    2500: f9085bff     	str	xzr, [sp, #0x10b0]
    2504: 8b0902a9     	add	x9, x21, x9
    2508: f9084bff     	str	xzr, [sp, #0x1090]
    250c: 3900413f     	strb	wzr, [x9, #0x10]
    2510: 5282ba09     	mov	w9, #0x15d0             // =5584
    2514: 8b0902a9     	add	x9, x21, x9
    2518: f90837ff     	str	xzr, [sp, #0x1068]
    251c: 3900413f     	strb	wzr, [x9, #0x10]
    2520: d2800ae9     	mov	x9, #0x57               // =87
    2524: f2c00aa9     	movk	x9, #0x55, lsl #32
    2528: f82a6aa9     	str	x9, [x21, x10]
    252c: 5282b48a     	mov	w10, #0x15a4            // =5540
    2530: 5282b609     	mov	w9, #0x15b0             // =5552
    2534: f9083bff     	str	xzr, [sp, #0x1070]
    2538: 8b0902a9     	add	x9, x21, x9
    253c: 393f82bf     	strb	wzr, [x21, #0xfe0]
    2540: 3900413f     	strb	wzr, [x9, #0x10]
    2544: d2800ac9     	mov	x9, #0x56               // =86
    2548: f2c00aa9     	movk	x9, #0x55, lsl #32
    254c: f82a6aa9     	str	x9, [x21, x10]
    2550: d2800aca     	mov	x10, #0x56              // =86
    2554: 5282b089     	mov	w9, #0x1584             // =5508
    2558: f2c00aea     	movk	x10, #0x57, lsl #32
    255c: 3d83eea0     	str	q0, [x21, #0xfb0]
    2560: f8296aaa     	str	x10, [x21, x9]
    2564: 5282ae09     	mov	w9, #0x1570             // =5488
    2568: 5282ac8a     	mov	w10, #0x1564            // =5476
    256c: 8b0902a9     	add	x9, x21, x9
    2570: 392563ff     	strb	wzr, [sp, #0x958]
    2574: 3900413f     	strb	wzr, [x9, #0x10]
    2578: d2800aa9     	mov	x9, #0x55               // =85
    257c: f2c00ae9     	movk	x9, #0x57, lsl #32
    2580: f82a6aa9     	str	x9, [x21, x10]
    2584: 5282a48a     	mov	w10, #0x1524            // =5412
    2588: 5282a609     	mov	w9, #0x1530             // =5424
    258c: 393f02bf     	strb	wzr, [x21, #0xfc0]
    2590: 8b0902a9     	add	x9, x21, x9
    2594: f90817ff     	str	xzr, [sp, #0x1028]
    2598: 3900413f     	strb	wzr, [x9, #0x10]
    259c: d2800a89     	mov	x9, #0x54               // =84
    25a0: f2c00aa9     	movk	x9, #0x55, lsl #32
    25a4: f82a6aa9     	str	x9, [x21, x10]
    25a8: 5282a08a     	mov	w10, #0x1504            // =5380
    25ac: 5282a209     	mov	w9, #0x1510             // =5392
    25b0: f9081bff     	str	xzr, [sp, #0x1030]
    25b4: 8b0902a9     	add	x9, x21, x9
    25b8: 3d83dea0     	str	q0, [x21, #0xf70]
    25bc: 3900413f     	strb	wzr, [x9, #0x10]
    25c0: d2800a89     	mov	x9, #0x54               // =84
    25c4: f2c00b09     	movk	x9, #0x58, lsl #32
    25c8: f82a6aa9     	str	x9, [x21, x10]
    25cc: 5282988a     	mov	w10, #0x14c4            // =5316
    25d0: 52829a09     	mov	w9, #0x14d0             // =5328
    25d4: 3d822ea0     	str	q0, [x21, #0x8b0]
    25d8: 8b0902a9     	add	x9, x21, x9
    25dc: 393e02bf     	strb	wzr, [x21, #0xf80]
    25e0: 3900413f     	strb	wzr, [x9, #0x10]
    25e4: d2800a69     	mov	x9, #0x53               // =83
    25e8: f2c00a29     	movk	x9, #0x51, lsl #32
    25ec: f82a6aa9     	str	x9, [x21, x10]
    25f0: 5282948a     	mov	w10, #0x14a4            // =5284
    25f4: 52829609     	mov	w9, #0x14b0             // =5296
    25f8: f907f7ff     	str	xzr, [sp, #0xfe8]
    25fc: 8b0902a9     	add	x9, x21, x9
    2600: f907fbff     	str	xzr, [sp, #0xff0]
    2604: 3900413f     	strb	wzr, [x9, #0x10]
    2608: d2800a49     	mov	x9, #0x52               // =82
    260c: f2c00a29     	movk	x9, #0x51, lsl #32
    2610: f82a6aa9     	str	x9, [x21, x10]
    2614: d2800a4a     	mov	x10, #0x52              // =82
    2618: 52829089     	mov	w9, #0x1484             // =5252
    261c: f2c00a6a     	movk	x10, #0x53, lsl #32
    2620: 3d83cea0     	str	q0, [x21, #0xf30]
    2624: f8296aaa     	str	x10, [x21, x9]
    2628: 52828e09     	mov	w9, #0x1470             // =5232
    262c: 52828c8a     	mov	w10, #0x1464            // =5220
    2630: 8b0902a9     	add	x9, x21, x9
    2634: 393d02bf     	strb	wzr, [x21, #0xf40]
    2638: 3900413f     	strb	wzr, [x9, #0x10]
    263c: d2800a29     	mov	x9, #0x51               // =81
    2640: f2c00a69     	movk	x9, #0x53, lsl #32
    2644: f82a6aa9     	str	x9, [x21, x10]
    2648: 5282848a     	mov	w10, #0x1424            // =5156
    264c: 52828609     	mov	w9, #0x1430             // =5168
    2650: f907d7ff     	str	xzr, [sp, #0xfa8]
    2654: 8b0902a9     	add	x9, x21, x9
    2658: f907c7ff     	str	xzr, [sp, #0xf88]
    265c: 3900413f     	strb	wzr, [x9, #0x10]
    2660: d2800a09     	mov	x9, #0x50               // =80
    2664: f2c00a29     	movk	x9, #0x51, lsl #32
    2668: f82a6aa9     	str	x9, [x21, x10]
    266c: 5282808a     	mov	w10, #0x1404            // =5124
    2670: 52828209     	mov	w9, #0x1410             // =5136
    2674: f907dbff     	str	xzr, [sp, #0xfb0]
    2678: 8b0902a9     	add	x9, x21, x9
    267c: f907cbff     	str	xzr, [sp, #0xf90]
    2680: 3900413f     	strb	wzr, [x9, #0x10]
    2684: d2800a09     	mov	x9, #0x50               // =80
    2688: f2c00a89     	movk	x9, #0x54, lsl #32
    268c: f82a6aa9     	str	x9, [x21, x10]
    2690: 5282788a     	mov	w10, #0x13c4            // =5060
    2694: 52827a09     	mov	w9, #0x13d0             // =5072
    2698: 3d8236a0     	str	q0, [x21, #0x8d0]
    269c: 8b0902a9     	add	x9, x21, x9
    26a0: 393c02bf     	strb	wzr, [x21, #0xf00]
    26a4: 3900413f     	strb	wzr, [x9, #0x10]
    26a8: d28009e9     	mov	x9, #0x4f               // =79
    26ac: f2c009a9     	movk	x9, #0x4d, lsl #32
    26b0: f82a6aa9     	str	x9, [x21, x10]
    26b4: 5282748a     	mov	w10, #0x13a4            // =5028
    26b8: 52827609     	mov	w9, #0x13b0             // =5040
    26bc: f907b7ff     	str	xzr, [sp, #0xf68]
    26c0: 8b0902a9     	add	x9, x21, x9
    26c4: f907bbff     	str	xzr, [sp, #0xf70]
    26c8: 3900413f     	strb	wzr, [x9, #0x10]
    26cc: d28009c9     	mov	x9, #0x4e               // =78
    26d0: f2c009a9     	movk	x9, #0x4d, lsl #32
    26d4: f82a6aa9     	str	x9, [x21, x10]
    26d8: d28009ca     	mov	x10, #0x4e              // =78
    26dc: 52827089     	mov	w9, #0x1384             // =4996
    26e0: f2c009ea     	movk	x10, #0x4f, lsl #32
    26e4: 393de3ff     	strb	wzr, [sp, #0xf78]
    26e8: f8296aaa     	str	x10, [x21, x9]
    26ec: 52826e09     	mov	w9, #0x1370             // =4976
    26f0: 52826c8a     	mov	w10, #0x1364            // =4964
    26f4: 8b0902a9     	add	x9, x21, x9
    26f8: 3d83aea0     	str	q0, [x21, #0xeb0]
    26fc: 3900413f     	strb	wzr, [x9, #0x10]
    2700: d28009a9     	mov	x9, #0x4d               // =77
    2704: f2c009e9     	movk	x9, #0x4f, lsl #32
    2708: f82a6aa9     	str	x9, [x21, x10]
    270c: 5282648a     	mov	w10, #0x1324            // =4900
    2710: 52826609     	mov	w9, #0x1330             // =4912
    2714: 3925e3ff     	strb	wzr, [sp, #0x978]
    2718: 8b0902a9     	add	x9, x21, x9
    271c: 393d63ff     	strb	wzr, [sp, #0xf58]
    2720: 3900413f     	strb	wzr, [x9, #0x10]
    2724: d2800989     	mov	x9, #0x4c               // =76
    2728: f2c009a9     	movk	x9, #0x4d, lsl #32
    272c: f82a6aa9     	str	x9, [x21, x10]
    2730: 5282608a     	mov	w10, #0x1304            // =4868
    2734: 52826209     	mov	w9, #0x1310             // =4880
    2738: f90797ff     	str	xzr, [sp, #0xf28]
    273c: 8b0902a9     	add	x9, x21, x9
    2740: f9079bff     	str	xzr, [sp, #0xf30]
    2744: 3900413f     	strb	wzr, [x9, #0x10]
    2748: d2800989     	mov	x9, #0x4c               // =76
    274c: f2c00a09     	movk	x9, #0x50, lsl #32
    2750: f82a6aa9     	str	x9, [x21, x10]
    2754: 5282588a     	mov	w10, #0x12c4            // =4804
    2758: 52825a09     	mov	w9, #0x12d0             // =4816
    275c: 3d839ea0     	str	q0, [x21, #0xe70]
    2760: 8b0902a9     	add	x9, x21, x9
    2764: 393c63ff     	strb	wzr, [sp, #0xf18]
    2768: 3900413f     	strb	wzr, [x9, #0x10]
    276c: d2800969     	mov	x9, #0x4b               // =75
    2770: f2c00929     	movk	x9, #0x49, lsl #32
    2774: f82a6aa9     	str	x9, [x21, x10]
    2778: 5282548a     	mov	w10, #0x12a4            // =4772
    277c: 52825609     	mov	w9, #0x12b0             // =4784
    2780: f90777ff     	str	xzr, [sp, #0xee8]
    2784: 8b0902a9     	add	x9, x21, x9
    2788: 3d823ea0     	str	q0, [x21, #0x8f0]
    278c: 3900413f     	strb	wzr, [x9, #0x10]
    2790: d2800949     	mov	x9, #0x4a               // =74
    2794: f2c00929     	movk	x9, #0x49, lsl #32
    2798: f82a6aa9     	str	x9, [x21, x10]
    279c: d280094a     	mov	x10, #0x4a              // =74
    27a0: 52825089     	mov	w9, #0x1284             // =4740
    27a4: f2c0096a     	movk	x10, #0x4b, lsl #32
    27a8: f9077bff     	str	xzr, [sp, #0xef0]
    27ac: f8296aaa     	str	x10, [x21, x9]
    27b0: 52824e09     	mov	w9, #0x1270             // =4720
    27b4: 52824c8a     	mov	w10, #0x1264            // =4708
    27b8: 8b0902a9     	add	x9, x21, x9
    27bc: f90767ff     	str	xzr, [sp, #0xec8]
    27c0: 3900413f     	strb	wzr, [x9, #0x10]
    27c4: d2800929     	mov	x9, #0x49               // =73
    27c8: f2c00969     	movk	x9, #0x4b, lsl #32
    27cc: f82a6aa9     	str	x9, [x21, x10]
    27d0: d280092a     	mov	x10, #0x49              // =73
    27d4: 52824889     	mov	w9, #0x1244             // =4676
    27d8: f2c0094a     	movk	x10, #0x4a, lsl #32
    27dc: f9076bff     	str	xzr, [sp, #0xed0]
    27e0: f8296aaa     	str	x10, [x21, x9]
    27e4: 52824609     	mov	w9, #0x1230             // =4656
    27e8: 5282448a     	mov	w10, #0x1224            // =4644
    27ec: 8b0902a9     	add	x9, x21, x9
    27f0: 393b63ff     	strb	wzr, [sp, #0xed8]
    27f4: 3900413f     	strb	wzr, [x9, #0x10]
    27f8: d2800909     	mov	x9, #0x48               // =72
    27fc: f2c00929     	movk	x9, #0x49, lsl #32
    2800: f82a6aa9     	str	x9, [x21, x10]
    2804: 5282388a     	mov	w10, #0x11c4            // =4548
    2808: 52823e09     	mov	w9, #0x11f0             // =4592
    280c: 3d8386a0     	str	q0, [x21, #0xe10]
    2810: 8b0902a9     	add	x9, x21, x9
    2814: 393ae3ff     	strb	wzr, [sp, #0xeb8]
    2818: 3900413f     	strb	wzr, [x9, #0x10]
    281c: 52823a09     	mov	w9, #0x11d0             // =4560
    2820: 8b0902a9     	add	x9, x21, x9
    2824: f90747ff     	str	xzr, [sp, #0xe88]
    2828: 3900413f     	strb	wzr, [x9, #0x10]
    282c: d28008e9     	mov	x9, #0x47               // =71
    2830: f2c008a9     	movk	x9, #0x45, lsl #32
    2834: f82a6aa9     	str	x9, [x21, x10]
    2838: 5282348a     	mov	w10, #0x11a4            // =4516
    283c: 52823609     	mov	w9, #0x11b0             // =4528
    2840: f9074bff     	str	xzr, [sp, #0xe90]
    2844: 8b0902a9     	add	x9, x21, x9
    2848: f90737ff     	str	xzr, [sp, #0xe68]
    284c: 3900413f     	strb	wzr, [x9, #0x10]
    2850: d28008c9     	mov	x9, #0x46               // =70
    2854: f2c008a9     	movk	x9, #0x45, lsl #32
    2858: f82a6aa9     	str	x9, [x21, x10]
    285c: d28008ca     	mov	x10, #0x46              // =70
    2860: 52823089     	mov	w9, #0x1184             // =4484
    2864: f2c008ea     	movk	x10, #0x47, lsl #32
    2868: f9073bff     	str	xzr, [sp, #0xe70]
    286c: f8296aaa     	str	x10, [x21, x9]
    2870: 52822e09     	mov	w9, #0x1170             // =4464
    2874: 52822c8a     	mov	w10, #0x1164            // =4452
    2878: 8b0902a9     	add	x9, x21, x9
    287c: 3939e3ff     	strb	wzr, [sp, #0xe78]
    2880: 3900413f     	strb	wzr, [x9, #0x10]
    2884: d28008a9     	mov	x9, #0x45               // =69
    2888: f2c008e9     	movk	x9, #0x47, lsl #32
    288c: f82a6aa9     	str	x9, [x21, x10]
    2890: 5282248a     	mov	w10, #0x1124            // =4388
    2894: 52822609     	mov	w9, #0x1130             // =4400
    2898: 3d836ea0     	str	q0, [x21, #0xdb0]
    289c: 8b0902a9     	add	x9, x21, x9
    28a0: 3926e3ff     	strb	wzr, [sp, #0x9b8]
    28a4: 3900413f     	strb	wzr, [x9, #0x10]
    28a8: d2800889     	mov	x9, #0x44               // =68
    28ac: f2c008a9     	movk	x9, #0x45, lsl #32
    28b0: f82a6aa9     	str	x9, [x21, x10]
    28b4: 5282208a     	mov	w10, #0x1104            // =4356
    28b8: 52822209     	mov	w9, #0x1110             // =4368
    28bc: 393963ff     	strb	wzr, [sp, #0xe58]
    28c0: 8b0902a9     	add	x9, x21, x9
    28c4: f90717ff     	str	xzr, [sp, #0xe28]
    28c8: 3900413f     	strb	wzr, [x9, #0x10]
    28cc: d2800889     	mov	x9, #0x44               // =68
    28d0: f2c00909     	movk	x9, #0x48, lsl #32
    28d4: f82a6aa9     	str	x9, [x21, x10]
    28d8: 5282188a     	mov	w10, #0x10c4            // =4292
    28dc: 52821a09     	mov	w9, #0x10d0             // =4304
    28e0: f9071bff     	str	xzr, [sp, #0xe30]
    28e4: 8b0902a9     	add	x9, x21, x9
    28e8: 3d835ea0     	str	q0, [x21, #0xd70]
    28ec: 3900413f     	strb	wzr, [x9, #0x10]
    28f0: d2800869     	mov	x9, #0x43               // =67
    28f4: f2c00829     	movk	x9, #0x41, lsl #32
    28f8: f82a6aa9     	str	x9, [x21, x10]
    28fc: 5282148a     	mov	w10, #0x10a4            // =4260
    2900: 52821609     	mov	w9, #0x10b0             // =4272
    2904: 3d8246a0     	str	q0, [x21, #0x910]
    2908: 8b0902a9     	add	x9, x21, x9
    290c: 393863ff     	strb	wzr, [sp, #0xe18]
    2910: 3900413f     	strb	wzr, [x9, #0x10]
    2914: d2800849     	mov	x9, #0x42               // =66
    2918: f2c00829     	movk	x9, #0x41, lsl #32
    291c: f82a6aa9     	str	x9, [x21, x10]
    2920: d280084a     	mov	x10, #0x42              // =66
    2924: 52821089     	mov	w9, #0x1084             // =4228
    2928: f2c0086a     	movk	x10, #0x43, lsl #32
    292c: f906f7ff     	str	xzr, [sp, #0xde8]
    2930: f8296aaa     	str	x10, [x21, x9]
    2934: 52820e09     	mov	w9, #0x1070             // =4208
    2938: 52820c8a     	mov	w10, #0x1064            // =4196
    293c: 8b0902a9     	add	x9, x21, x9
    2940: f906fbff     	str	xzr, [sp, #0xdf0]
    2944: 3900413f     	strb	wzr, [x9, #0x10]
    2948: d2800829     	mov	x9, #0x41               // =65
    294c: f2c00869     	movk	x9, #0x43, lsl #32
    2950: f82a6aa9     	str	x9, [x21, x10]
    2954: d280082a     	mov	x10, #0x41              // =65
    2958: 52820889     	mov	w9, #0x1044             // =4164
    295c: f2c0084a     	movk	x10, #0x42, lsl #32
    2960: 3d834ea0     	str	q0, [x21, #0xd30]
    2964: f8296aaa     	str	x10, [x21, x9]
    2968: 52820609     	mov	w9, #0x1030             // =4144
    296c: 5282048a     	mov	w10, #0x1024            // =4132
    2970: 8b0902a9     	add	x9, x21, x9
    2974: 393763ff     	strb	wzr, [sp, #0xdd8]
    2978: 3900413f     	strb	wzr, [x9, #0x10]
    297c: d2800809     	mov	x9, #0x40               // =64
    2980: f2c00829     	movk	x9, #0x41, lsl #32
    2984: f82a6aa9     	str	x9, [x21, x10]
    2988: d28007ea     	mov	x10, #0x3f              // =63
    298c: 913f12a9     	add	x9, x21, #0xfc4
    2990: f2c007aa     	movk	x10, #0x3d, lsl #32
    2994: f906d7ff     	str	xzr, [sp, #0xda8]
    2998: f900012a     	str	x10, [x9]
    299c: 913fc2aa     	add	x10, x21, #0xff0
    29a0: 913f92a9     	add	x9, x21, #0xfe4
    29a4: 3900415f     	strb	wzr, [x10, #0x10]
    29a8: d28007ea     	mov	x10, #0x3f              // =63
    29ac: f2c007ca     	movk	x10, #0x3e, lsl #32
    29b0: f906c7ff     	str	xzr, [sp, #0xd88]
    29b4: f900012a     	str	x10, [x9]
    29b8: d28007ca     	mov	x10, #0x3e              // =62
    29bc: 913e92a9     	add	x9, x21, #0xfa4
    29c0: f2c007aa     	movk	x10, #0x3d, lsl #32
    29c4: f906dbff     	str	xzr, [sp, #0xdb0]
    29c8: f900012a     	str	x10, [x9]
    29cc: d28007aa     	mov	x10, #0x3d              // =61
    29d0: 913d92a9     	add	x9, x21, #0xf64
    29d4: f2c007ea     	movk	x10, #0x3f, lsl #32
    29d8: f906cbff     	str	xzr, [sp, #0xd90]
    29dc: f900012a     	str	x10, [x9]
    29e0: d280078a     	mov	x10, #0x3c              // =60
    29e4: 913c92a9     	add	x9, x21, #0xf24
    29e8: f2c007aa     	movk	x10, #0x3d, lsl #32
    29ec: 3d824ea0     	str	q0, [x21, #0x930]
    29f0: f900012a     	str	x10, [x9]
    29f4: d280078a     	mov	x10, #0x3c              // =60
    29f8: 913c12a9     	add	x9, x21, #0xf04
    29fc: f2c0080a     	movk	x10, #0x40, lsl #32
    2a00: 393663ff     	strb	wzr, [sp, #0xd98]
    2a04: f900012a     	str	x10, [x9]
    2a08: d280076a     	mov	x10, #0x3b              // =59
    2a0c: 913b92a9     	add	x9, x21, #0xee4
    2a10: f2c0074a     	movk	x10, #0x3a, lsl #32
    2a14: f906b7ff     	str	xzr, [sp, #0xd68]
    2a18: f900012a     	str	x10, [x9]
    2a1c: d280074a     	mov	x10, #0x3a              // =58
    2a20: 913a92a9     	add	x9, x21, #0xea4
    2a24: f2c0072a     	movk	x10, #0x39, lsl #32
    2a28: f906bbff     	str	xzr, [sp, #0xd70]
    2a2c: f900012a     	str	x10, [x9]
    2a30: d280072a     	mov	x10, #0x39              // =57
    2a34: 913992a9     	add	x9, x21, #0xe64
    2a38: f2c0076a     	movk	x10, #0x3b, lsl #32
    2a3c: 3935e3ff     	strb	wzr, [sp, #0xd78]
    2a40: f900012a     	str	x10, [x9]
    2a44: d280072a     	mov	x10, #0x39              // =57
    2a48: 913912a9     	add	x9, x21, #0xe44
    2a4c: f2c0074a     	movk	x10, #0x3a, lsl #32
    2a50: 3d832ea0     	str	q0, [x21, #0xcb0]
    2a54: f900012a     	str	x10, [x9]
    2a58: d280070a     	mov	x10, #0x38              // =56
    2a5c: 913812a9     	add	x9, x21, #0xe04
    2a60: f2c0078a     	movk	x10, #0x3c, lsl #32
    2a64: 392763ff     	strb	wzr, [sp, #0x9d8]
    2a68: f900012a     	str	x10, [x9]
    2a6c: d28006ea     	mov	x10, #0x37              // =55
    2a70: 913792a9     	add	x9, x21, #0xde4
    2a74: f2c006ca     	movk	x10, #0x36, lsl #32
    2a78: 393563ff     	strb	wzr, [sp, #0xd58]
    2a7c: f900012a     	str	x10, [x9]
    2a80: d28006ca     	mov	x10, #0x36              // =54
    2a84: 913692a9     	add	x9, x21, #0xda4
    2a88: f2c006aa     	movk	x10, #0x35, lsl #32
    2a8c: f90697ff     	str	xzr, [sp, #0xd28]
    2a90: f900012a     	str	x10, [x9]
    2a94: d28006aa     	mov	x10, #0x35              // =53
    2a98: 913592a9     	add	x9, x21, #0xd64
    2a9c: f2c006ea     	movk	x10, #0x37, lsl #32
    2aa0: f9069bff     	str	xzr, [sp, #0xd30]
    2aa4: f900012a     	str	x10, [x9]
    2aa8: d280068a     	mov	x10, #0x34              // =52
    2aac: 913492a9     	add	x9, x21, #0xd24
    2ab0: f2c006aa     	movk	x10, #0x35, lsl #32
    2ab4: 3d831ea0     	str	q0, [x21, #0xc70]
    2ab8: f900012a     	str	x10, [x9]
    2abc: d280068a     	mov	x10, #0x34              // =52
    2ac0: 913412a9     	add	x9, x21, #0xd04
    2ac4: f2c0070a     	movk	x10, #0x38, lsl #32
    2ac8: 3d8256a0     	str	q0, [x21, #0x950]
    2acc: f900012a     	str	x10, [x9]
    2ad0: d280066a     	mov	x10, #0x33              // =51
    2ad4: 913392a9     	add	x9, x21, #0xce4
    2ad8: f2c0064a     	movk	x10, #0x32, lsl #32
    2adc: 393463ff     	strb	wzr, [sp, #0xd18]
    2ae0: f900012a     	str	x10, [x9]
    2ae4: d280064a     	mov	x10, #0x32              // =50
    2ae8: 913292a9     	add	x9, x21, #0xca4
    2aec: f2c0062a     	movk	x10, #0x31, lsl #32
    2af0: f90677ff     	str	xzr, [sp, #0xce8]
    2af4: f900012a     	str	x10, [x9]
    2af8: d280062a     	mov	x10, #0x31              // =49
    2afc: 913192a9     	add	x9, x21, #0xc64
    2b00: f2c0066a     	movk	x10, #0x33, lsl #32
    2b04: f9067bff     	str	xzr, [sp, #0xcf0]
    2b08: f900012a     	str	x10, [x9]
    2b0c: d280060a     	mov	x10, #0x30              // =48
    2b10: 913092a9     	add	x9, x21, #0xc24
    2b14: f2c0062a     	movk	x10, #0x31, lsl #32
    2b18: 3d830ea0     	str	q0, [x21, #0xc30]
    2b1c: f900012a     	str	x10, [x9]
    2b20: d280060a     	mov	x10, #0x30              // =48
    2b24: 913012a9     	add	x9, x21, #0xc04
    2b28: f2c0068a     	movk	x10, #0x34, lsl #32
    2b2c: 393363ff     	strb	wzr, [sp, #0xcd8]
    2b30: f900012a     	str	x10, [x9]
    2b34: d28005ea     	mov	x10, #0x2f              // =47
    2b38: 912f92a9     	add	x9, x21, #0xbe4
    2b3c: f2c005ca     	movk	x10, #0x2e, lsl #32
    2b40: f90657ff     	str	xzr, [sp, #0xca8]
    2b44: f900012a     	str	x10, [x9]
    2b48: d28005ca     	mov	x10, #0x2e              // =46
    2b4c: 912e92a9     	add	x9, x21, #0xba4
    2b50: f2c005aa     	movk	x10, #0x2d, lsl #32
    2b54: f90647ff     	str	xzr, [sp, #0xc88]
    2b58: f900012a     	str	x10, [x9]
    2b5c: d28005aa     	mov	x10, #0x2d              // =45
    2b60: 912d92a9     	add	x9, x21, #0xb64
    2b64: f2c005ea     	movk	x10, #0x2f, lsl #32
    2b68: f9065bff     	str	xzr, [sp, #0xcb0]
    2b6c: f900012a     	str	x10, [x9]
    2b70: d280058a     	mov	x10, #0x2c              // =44
    2b74: 912c92a9     	add	x9, x21, #0xb24
    2b78: f2c005aa     	movk	x10, #0x2d, lsl #32
    2b7c: f9064bff     	str	xzr, [sp, #0xc90]
    2b80: f900012a     	str	x10, [x9]
    2b84: d280058a     	mov	x10, #0x2c              // =44
    2b88: 912c12a9     	add	x9, x21, #0xb04
    2b8c: f2c0060a     	movk	x10, #0x30, lsl #32
    2b90: 393263ff     	strb	wzr, [sp, #0xc98]
    2b94: f900012a     	str	x10, [x9]
    2b98: d280056a     	mov	x10, #0x2b              // =43
    2b9c: 912b92a9     	add	x9, x21, #0xae4
    2ba0: f2c0054a     	movk	x10, #0x2a, lsl #32
    2ba4: f90637ff     	str	xzr, [sp, #0xc68]
    2ba8: f900012a     	str	x10, [x9]
    2bac: d280054a     	mov	x10, #0x2a              // =42
    2bb0: 912a92a9     	add	x9, x21, #0xaa4
    2bb4: f2c0052a     	movk	x10, #0x29, lsl #32
    2bb8: f9063bff     	str	xzr, [sp, #0xc70]
    2bbc: f900012a     	str	x10, [x9]
    2bc0: d280052a     	mov	x10, #0x29              // =41
    2bc4: 912992a9     	add	x9, x21, #0xa64
    2bc8: f2c0056a     	movk	x10, #0x2b, lsl #32
    2bcc: 3931e3ff     	strb	wzr, [sp, #0xc78]
    2bd0: f900012a     	str	x10, [x9]
    2bd4: d280050a     	mov	x10, #0x28              // =40
    2bd8: 912892a9     	add	x9, x21, #0xa24
    2bdc: f2c0052a     	movk	x10, #0x29, lsl #32
    2be0: 3d82eea0     	str	q0, [x21, #0xbb0]
    2be4: f900012a     	str	x10, [x9]
    2be8: d503201f     	nop
    2bec: 1001c72a     	adr	x10, 0x64d0 <.text+0x4df0>
    2bf0: f90557ea     	str	x10, [sp, #0xaa8]
    2bf4: d280050a     	mov	x10, #0x28              // =40
    2bf8: 912812a9     	add	x9, x21, #0xa04
    2bfc: f2c0058a     	movk	x10, #0x2c, lsl #32
    2c00: 392863ff     	strb	wzr, [sp, #0xa18]
    2c04: f900012a     	str	x10, [x9]
    2c08: d2800baa     	mov	x10, #0x5d              // =93
    2c0c: 5282e889     	mov	w9, #0x1744             // =5956
    2c10: f2c00bca     	movk	x10, #0x5e, lsl #32
    2c14: f8296aaa     	str	x10, [x21, x9]
    2c18: 5282ec89     	mov	w9, #0x1764             // =5988
    2c1c: d2800baa     	mov	x10, #0x5d              // =93
    2c20: 393163ff     	strb	wzr, [sp, #0xc58]
    2c24: f2c00bea     	movk	x10, #0x5f, lsl #32
    2c28: f8296aaa     	str	x10, [x21, x9]
    2c2c: 5282ee09     	mov	w9, #0x1770             // =6000
    2c30: 8b0902a9     	add	x9, x21, x9
    2c34: d2800bca     	mov	x10, #0x5e              // =94
    2c38: f90617ff     	str	xzr, [sp, #0xc28]
    2c3c: 3900413f     	strb	wzr, [x9, #0x10]
    2c40: 5282f089     	mov	w9, #0x1784             // =6020
    2c44: f2c00bea     	movk	x10, #0x5f, lsl #32
    2c48: f8296aaa     	str	x10, [x21, x9]
    2c4c: d2800bca     	mov	x10, #0x5e              // =94
    2c50: 5282f489     	mov	w9, #0x17a4             // =6052
    2c54: f2c00baa     	movk	x10, #0x5d, lsl #32
    2c58: f8296aaa     	str	x10, [x21, x9]
    2c5c: 5282f889     	mov	w9, #0x17c4             // =6084
    2c60: d2800bea     	mov	x10, #0x5f              // =95
    2c64: f9061bff     	str	xzr, [sp, #0xc30]
    2c68: f2c00baa     	movk	x10, #0x5d, lsl #32
    2c6c: f8296aaa     	str	x10, [x21, x9]
    2c70: 5282f609     	mov	w9, #0x17b0             // =6064
    2c74: 5282fa0a     	mov	w10, #0x17d0            // =6096
    2c78: 8b0902a9     	add	x9, x21, x9
    2c7c: 3d82dea0     	str	q0, [x21, #0xb70]
    2c80: 3900413f     	strb	wzr, [x9, #0x10]
    2c84: 8b0a02a9     	add	x9, x21, x10
    2c88: d2800bea     	mov	x10, #0x5f              // =95
    2c8c: 3900413f     	strb	wzr, [x9, #0x10]
    2c90: 5282fc89     	mov	w9, #0x17e4             // =6116
    2c94: f2c00bca     	movk	x10, #0x5e, lsl #32
    2c98: f8296aaa     	str	x10, [x21, x9]
    2c9c: d2800c0a     	mov	x10, #0x60              // =96
    2ca0: 52830089     	mov	w9, #0x1804             // =6148
    2ca4: f2c00c8a     	movk	x10, #0x64, lsl #32
    2ca8: f8296aaa     	str	x10, [x21, x9]
    2cac: 52830489     	mov	w9, #0x1824             // =6180
    2cb0: d2800c0a     	mov	x10, #0x60              // =96
    2cb4: 3d825ea0     	str	q0, [x21, #0x970]
    2cb8: f2c00c2a     	movk	x10, #0x61, lsl #32
    2cbc: f8296aaa     	str	x10, [x21, x9]
    2cc0: 52830209     	mov	w9, #0x1810             // =6160
    2cc4: 5283060a     	mov	w10, #0x1830            // =6192
    2cc8: 8b0902a9     	add	x9, x21, x9
    2ccc: 393063ff     	strb	wzr, [sp, #0xc18]
    2cd0: 3900413f     	strb	wzr, [x9, #0x10]
    2cd4: 8b0a02a9     	add	x9, x21, x10
    2cd8: d2800c2a     	mov	x10, #0x61              // =97
    2cdc: 3900413f     	strb	wzr, [x9, #0x10]
    2ce0: 52830889     	mov	w9, #0x1844             // =6212
    2ce4: f2c00c4a     	movk	x10, #0x62, lsl #32
    2ce8: f8296aaa     	str	x10, [x21, x9]
    2cec: 52830c89     	mov	w9, #0x1864             // =6244
    2cf0: d2800c2a     	mov	x10, #0x61              // =97
    2cf4: f2c00c6a     	movk	x10, #0x63, lsl #32
    2cf8: f8296aaa     	str	x10, [x21, x9]
    2cfc: 52830e09     	mov	w9, #0x1870             // =6256
    2d00: 8b0902a9     	add	x9, x21, x9
    2d04: d2800c4a     	mov	x10, #0x62              // =98
    2d08: f905f7ff     	str	xzr, [sp, #0xbe8]
    2d0c: 3900413f     	strb	wzr, [x9, #0x10]
    2d10: 52831089     	mov	w9, #0x1884             // =6276
    2d14: f2c00c6a     	movk	x10, #0x63, lsl #32
    2d18: f8296aaa     	str	x10, [x21, x9]
    2d1c: d2800c4a     	mov	x10, #0x62              // =98
    2d20: 52831489     	mov	w9, #0x18a4             // =6308
    2d24: f2c00c2a     	movk	x10, #0x61, lsl #32
    2d28: f8296aaa     	str	x10, [x21, x9]
    2d2c: 52831889     	mov	w9, #0x18c4             // =6340
    2d30: d2800c6a     	mov	x10, #0x63              // =99
    2d34: f905fbff     	str	xzr, [sp, #0xbf0]
    2d38: f2c00c2a     	movk	x10, #0x61, lsl #32
    2d3c: f8296aaa     	str	x10, [x21, x9]
    2d40: 52831609     	mov	w9, #0x18b0             // =6320
    2d44: 52831a0a     	mov	w10, #0x18d0            // =6352
    2d48: 8b0902a9     	add	x9, x21, x9
    2d4c: 3d82cea0     	str	q0, [x21, #0xb30]
    2d50: 3900413f     	strb	wzr, [x9, #0x10]
    2d54: 8b0a02a9     	add	x9, x21, x10
    2d58: d2800c6a     	mov	x10, #0x63              // =99
    2d5c: 3900413f     	strb	wzr, [x9, #0x10]
    2d60: 52831c89     	mov	w9, #0x18e4             // =6372
    2d64: f2c00c4a     	movk	x10, #0x62, lsl #32
    2d68: f8296aaa     	str	x10, [x21, x9]
    2d6c: d2800c8a     	mov	x10, #0x64              // =100
    2d70: 52832089     	mov	w9, #0x1904             // =6404
    2d74: f2c00d0a     	movk	x10, #0x68, lsl #32
    2d78: f8296aaa     	str	x10, [x21, x9]
    2d7c: 52832489     	mov	w9, #0x1924             // =6436
    2d80: d2800c8a     	mov	x10, #0x64              // =100
    2d84: 392f63ff     	strb	wzr, [sp, #0xbd8]
    2d88: f2c00caa     	movk	x10, #0x65, lsl #32
    2d8c: f8296aaa     	str	x10, [x21, x9]
    2d90: 52832209     	mov	w9, #0x1910             // =6416
    2d94: 5283260a     	mov	w10, #0x1930            // =6448
    2d98: 8b0902a9     	add	x9, x21, x9
    2d9c: f905d7ff     	str	xzr, [sp, #0xba8]
    2da0: 3900413f     	strb	wzr, [x9, #0x10]
    2da4: 8b0a02a9     	add	x9, x21, x10
    2da8: d2800caa     	mov	x10, #0x65              // =101
    2dac: 3900413f     	strb	wzr, [x9, #0x10]
    2db0: 52832889     	mov	w9, #0x1944             // =6468
    2db4: f2c00cca     	movk	x10, #0x66, lsl #32
    2db8: f8296aaa     	str	x10, [x21, x9]
    2dbc: 52832c89     	mov	w9, #0x1964             // =6500
    2dc0: d2800caa     	mov	x10, #0x65              // =101
    2dc4: f2c00cea     	movk	x10, #0x67, lsl #32
    2dc8: f8296aaa     	str	x10, [x21, x9]
    2dcc: 52832e09     	mov	w9, #0x1970             // =6512
    2dd0: 8b0902a9     	add	x9, x21, x9
    2dd4: d2800cca     	mov	x10, #0x66              // =102
    2dd8: f905c7ff     	str	xzr, [sp, #0xb88]
    2ddc: 3900413f     	strb	wzr, [x9, #0x10]
    2de0: 52833089     	mov	w9, #0x1984             // =6532
    2de4: f2c00cea     	movk	x10, #0x67, lsl #32
    2de8: f8296aaa     	str	x10, [x21, x9]
    2dec: 52833489     	mov	w9, #0x19a4             // =6564
    2df0: d2800cca     	mov	x10, #0x66              // =102
    2df4: f2c00caa     	movk	x10, #0x65, lsl #32
    2df8: f8296aaa     	str	x10, [x21, x9]
    2dfc: 52833609     	mov	w9, #0x19b0             // =6576
    2e00: 8b0902a9     	add	x9, x21, x9
    2e04: d2800cea     	mov	x10, #0x67              // =103
    2e08: f905dbff     	str	xzr, [sp, #0xbb0]
    2e0c: 3900413f     	strb	wzr, [x9, #0x10]
    2e10: 52833889     	mov	w9, #0x19c4             // =6596
    2e14: f2c00caa     	movk	x10, #0x65, lsl #32
    2e18: f8296aaa     	str	x10, [x21, x9]
    2e1c: 52833a09     	mov	w9, #0x19d0             // =6608
    2e20: d2800cea     	mov	x10, #0x67              // =103
    2e24: 8b0902a9     	add	x9, x21, x9
    2e28: f2c00cca     	movk	x10, #0x66, lsl #32
    2e2c: f905cbff     	str	xzr, [sp, #0xb90]
    2e30: 3900413f     	strb	wzr, [x9, #0x10]
    2e34: 52833c89     	mov	w9, #0x19e4             // =6628
    2e38: f8296aaa     	str	x10, [x21, x9]
    2e3c: 52833e09     	mov	w9, #0x19f0             // =6640
    2e40: d2800d0a     	mov	x10, #0x68              // =104
    2e44: 8b0902a9     	add	x9, x21, x9
    2e48: f2c00d8a     	movk	x10, #0x6c, lsl #32
    2e4c: 3d8266a0     	str	q0, [x21, #0x990]
    2e50: 3900413f     	strb	wzr, [x9, #0x10]
    2e54: 52834089     	mov	w9, #0x1a04             // =6660
    2e58: f8296aaa     	str	x10, [x21, x9]
    2e5c: 52834489     	mov	w9, #0x1a24             // =6692
    2e60: d2800d0a     	mov	x10, #0x68              // =104
    2e64: f2c00d2a     	movk	x10, #0x69, lsl #32
    2e68: f8296aaa     	str	x10, [x21, x9]
    2e6c: 52834609     	mov	w9, #0x1a30             // =6704
    2e70: 8b0902a9     	add	x9, x21, x9
    2e74: d2800d2a     	mov	x10, #0x69              // =105
    2e78: 392e63ff     	strb	wzr, [sp, #0xb98]
    2e7c: 3900413f     	strb	wzr, [x9, #0x10]
    2e80: 52834889     	mov	w9, #0x1a44             // =6724
    2e84: f2c00d4a     	movk	x10, #0x6a, lsl #32
    2e88: f8296aaa     	str	x10, [x21, x9]
    2e8c: 52834c89     	mov	w9, #0x1a64             // =6756
    2e90: d2800d2a     	mov	x10, #0x69              // =105
    2e94: f2c00d6a     	movk	x10, #0x6b, lsl #32
    2e98: f8296aaa     	str	x10, [x21, x9]
    2e9c: 52834e09     	mov	w9, #0x1a70             // =6768
    2ea0: 8b0902a9     	add	x9, x21, x9
    2ea4: d2800d4a     	mov	x10, #0x6a              // =106
    2ea8: f905b7ff     	str	xzr, [sp, #0xb68]
    2eac: 3900413f     	strb	wzr, [x9, #0x10]
    2eb0: 52835089     	mov	w9, #0x1a84             // =6788
    2eb4: f2c00d6a     	movk	x10, #0x6b, lsl #32
    2eb8: f8296aaa     	str	x10, [x21, x9]
    2ebc: d2800d4a     	mov	x10, #0x6a              // =106
    2ec0: 52835489     	mov	w9, #0x1aa4             // =6820
    2ec4: f2c00d2a     	movk	x10, #0x69, lsl #32
    2ec8: f8296aaa     	str	x10, [x21, x9]
    2ecc: 52835889     	mov	w9, #0x1ac4             // =6852
    2ed0: d2800d6a     	mov	x10, #0x6b              // =107
    2ed4: f905bbff     	str	xzr, [sp, #0xb70]
    2ed8: f2c00d2a     	movk	x10, #0x69, lsl #32
    2edc: f8296aaa     	str	x10, [x21, x9]
    2ee0: 52835609     	mov	w9, #0x1ab0             // =6832
    2ee4: 52835a0a     	mov	w10, #0x1ad0            // =6864
    2ee8: 8b0902a9     	add	x9, x21, x9
    2eec: 392de3ff     	strb	wzr, [sp, #0xb78]
    2ef0: 3900413f     	strb	wzr, [x9, #0x10]
    2ef4: 8b0a02a9     	add	x9, x21, x10
    2ef8: d2800d6a     	mov	x10, #0x6b              // =107
    2efc: 3900413f     	strb	wzr, [x9, #0x10]
    2f00: 52835c89     	mov	w9, #0x1ae4             // =6884
    2f04: f2c00d4a     	movk	x10, #0x6a, lsl #32
    2f08: f8296aaa     	str	x10, [x21, x9]
    2f0c: d2800d8a     	mov	x10, #0x6c              // =108
    2f10: 52836089     	mov	w9, #0x1b04             // =6916
    2f14: f2c00e0a     	movk	x10, #0x70, lsl #32
    2f18: f8296aaa     	str	x10, [x21, x9]
    2f1c: 52836489     	mov	w9, #0x1b24             // =6948
    2f20: d2800d8a     	mov	x10, #0x6c              // =108
    2f24: 3d82aea0     	str	q0, [x21, #0xab0]
    2f28: f2c00daa     	movk	x10, #0x6d, lsl #32
    2f2c: f8296aaa     	str	x10, [x21, x9]
    2f30: 52836209     	mov	w9, #0x1b10             // =6928
    2f34: 5283660a     	mov	w10, #0x1b30            // =6960
    2f38: 8b0902a9     	add	x9, x21, x9
    2f3c: 392d63ff     	strb	wzr, [sp, #0xb58]
    2f40: 3900413f     	strb	wzr, [x9, #0x10]
    2f44: 8b0a02a9     	add	x9, x21, x10
    2f48: d2800daa     	mov	x10, #0x6d              // =109
    2f4c: 3900413f     	strb	wzr, [x9, #0x10]
    2f50: 52836889     	mov	w9, #0x1b44             // =6980
    2f54: f2c00dca     	movk	x10, #0x6e, lsl #32
    2f58: f8296aaa     	str	x10, [x21, x9]
    2f5c: 52836c89     	mov	w9, #0x1b64             // =7012
    2f60: d2800daa     	mov	x10, #0x6d              // =109
    2f64: f2c00dea     	movk	x10, #0x6f, lsl #32
    2f68: f8296aaa     	str	x10, [x21, x9]
    2f6c: 52836e09     	mov	w9, #0x1b70             // =7024
    2f70: 8b0902a9     	add	x9, x21, x9
    2f74: d2800dca     	mov	x10, #0x6e              // =110
    2f78: 3d82a6a0     	str	q0, [x21, #0xa90]
    2f7c: 3900413f     	strb	wzr, [x9, #0x10]
    2f80: 52837089     	mov	w9, #0x1b84             // =7044
    2f84: f2c00dea     	movk	x10, #0x6f, lsl #32
    2f88: f8296aaa     	str	x10, [x21, x9]
    2f8c: d2800dca     	mov	x10, #0x6e              // =110
    2f90: 52837489     	mov	w9, #0x1ba4             // =7076
    2f94: f2c00daa     	movk	x10, #0x6d, lsl #32
    2f98: f8296aaa     	str	x10, [x21, x9]
    2f9c: 52837889     	mov	w9, #0x1bc4             // =7108
    2fa0: d2800dea     	mov	x10, #0x6f              // =111
    2fa4: 3d829ea0     	str	q0, [x21, #0xa70]
    2fa8: f2c00daa     	movk	x10, #0x6d, lsl #32
    2fac: f8296aaa     	str	x10, [x21, x9]
    2fb0: 52837609     	mov	w9, #0x1bb0             // =7088
    2fb4: 52837a0a     	mov	w10, #0x1bd0            // =7120
    2fb8: 8b0902a9     	add	x9, x21, x9
    2fbc: 392963ff     	strb	wzr, [sp, #0xa58]
    2fc0: 3900413f     	strb	wzr, [x9, #0x10]
    2fc4: 8b0a02a9     	add	x9, x21, x10
    2fc8: d2800dea     	mov	x10, #0x6f              // =111
    2fcc: 3900413f     	strb	wzr, [x9, #0x10]
    2fd0: 52837c89     	mov	w9, #0x1be4             // =7140
    2fd4: f2c00dca     	movk	x10, #0x6e, lsl #32
    2fd8: f8296aaa     	str	x10, [x21, x9]
    2fdc: d2800e0a     	mov	x10, #0x70              // =112
    2fe0: 52838089     	mov	w9, #0x1c04             // =7172
    2fe4: f2c00e8a     	movk	x10, #0x74, lsl #32
    2fe8: f8296aaa     	str	x10, [x21, x9]
    2fec: 52838489     	mov	w9, #0x1c24             // =7204
    2ff0: d2800e0a     	mov	x10, #0x70              // =112
    2ff4: 392c63ff     	strb	wzr, [sp, #0xb18]
    2ff8: f2c00e2a     	movk	x10, #0x71, lsl #32
    2ffc: f8296aaa     	str	x10, [x21, x9]
    3000: 52838209     	mov	w9, #0x1c10             // =7184
    3004: 5283860a     	mov	w10, #0x1c30            // =7216
    3008: 8b0902a9     	add	x9, x21, x9
    300c: 3d8296a0     	str	q0, [x21, #0xa50]
    3010: 3900413f     	strb	wzr, [x9, #0x10]
    3014: 8b0a02a9     	add	x9, x21, x10
    3018: d2800e2a     	mov	x10, #0x71              // =113
    301c: 3900413f     	strb	wzr, [x9, #0x10]
    3020: 52838889     	mov	w9, #0x1c44             // =7236
    3024: f2c00e4a     	movk	x10, #0x72, lsl #32
    3028: f8296aaa     	str	x10, [x21, x9]
    302c: 52838c89     	mov	w9, #0x1c64             // =7268
    3030: d2800e2a     	mov	x10, #0x71              // =113
    3034: f2c00e6a     	movk	x10, #0x73, lsl #32
    3038: f8296aaa     	str	x10, [x21, x9]
    303c: 52838e09     	mov	w9, #0x1c70             // =7280
    3040: 8b0902a9     	add	x9, x21, x9
    3044: d2800e4a     	mov	x10, #0x72              // =114
    3048: 3d828ea0     	str	q0, [x21, #0xa30]
    304c: 3900413f     	strb	wzr, [x9, #0x10]
    3050: 52839089     	mov	w9, #0x1c84             // =7300
    3054: f2c00e6a     	movk	x10, #0x73, lsl #32
    3058: f8296aaa     	str	x10, [x21, x9]
    305c: 52839489     	mov	w9, #0x1ca4             // =7332
    3060: d2800e4a     	mov	x10, #0x72              // =114
    3064: f2c00e2a     	movk	x10, #0x71, lsl #32
    3068: f8296aaa     	str	x10, [x21, x9]
    306c: 52839609     	mov	w9, #0x1cb0             // =7344
    3070: 8b0902a9     	add	x9, x21, x9
    3074: d2800e6a     	mov	x10, #0x73              // =115
    3078: f9055bff     	str	xzr, [sp, #0xab0]
    307c: 3900413f     	strb	wzr, [x9, #0x10]
    3080: 52839889     	mov	w9, #0x1cc4             // =7364
    3084: f2c00e2a     	movk	x10, #0x71, lsl #32
    3088: f8296aaa     	str	x10, [x21, x9]
    308c: 52839a09     	mov	w9, #0x1cd0             // =7376
    3090: d2800e6a     	mov	x10, #0x73              // =115
    3094: 8b0902a9     	add	x9, x21, x9
    3098: f2c00e4a     	movk	x10, #0x72, lsl #32
    309c: 392b63ff     	strb	wzr, [sp, #0xad8]
    30a0: 3900413f     	strb	wzr, [x9, #0x10]
    30a4: 52839c89     	mov	w9, #0x1ce4             // =7396
    30a8: f8296aaa     	str	x10, [x21, x9]
    30ac: 52839e09     	mov	w9, #0x1cf0             // =7408
    30b0: d2800e8a     	mov	x10, #0x74              // =116
    30b4: 8b0902a9     	add	x9, x21, x9
    30b8: f2c00f0a     	movk	x10, #0x78, lsl #32
    30bc: 392ae3ff     	strb	wzr, [sp, #0xab8]
    30c0: 3900413f     	strb	wzr, [x9, #0x10]
    30c4: 5283a089     	mov	w9, #0x1d04             // =7428
    30c8: f8296aaa     	str	x10, [x21, x9]
    30cc: 5283a489     	mov	w9, #0x1d24             // =7460
    30d0: d2800e8a     	mov	x10, #0x74              // =116
    30d4: f2c00eaa     	movk	x10, #0x75, lsl #32
    30d8: f8296aaa     	str	x10, [x21, x9]
    30dc: 5283a609     	mov	w9, #0x1d30             // =7472
    30e0: 8b0902a9     	add	x9, x21, x9
    30e4: d2800eaa     	mov	x10, #0x75              // =117
    30e8: 3d826ea0     	str	q0, [x21, #0x9b0]
    30ec: 3900413f     	strb	wzr, [x9, #0x10]
    30f0: 5283a889     	mov	w9, #0x1d44             // =7492
    30f4: f2c00eca     	movk	x10, #0x76, lsl #32
    30f8: f8296aaa     	str	x10, [x21, x9]
    30fc: 5283ac89     	mov	w9, #0x1d64             // =7524
    3100: d2800eaa     	mov	x10, #0x75              // =117
    3104: f2c00eea     	movk	x10, #0x77, lsl #32
    3108: f8296aaa     	str	x10, [x21, x9]
    310c: 5283ae09     	mov	w9, #0x1d70             // =7536
    3110: 8b0902a9     	add	x9, x21, x9
    3114: d2800eca     	mov	x10, #0x76              // =118
    3118: 3d827ea0     	str	q0, [x21, #0x9f0]
    311c: 3900413f     	strb	wzr, [x9, #0x10]
    3120: 5283b089     	mov	w9, #0x1d84             // =7556
    3124: f2c00eea     	movk	x10, #0x77, lsl #32
    3128: f8296aaa     	str	x10, [x21, x9]
    312c: d2800eca     	mov	x10, #0x76              // =118
    3130: 5283b489     	mov	w9, #0x1da4             // =7588
    3134: f2c00eaa     	movk	x10, #0x75, lsl #32
    3138: f8296aaa     	str	x10, [x21, x9]
    313c: 5283b889     	mov	w9, #0x1dc4             // =7620
    3140: d2800eea     	mov	x10, #0x77              // =119
    3144: 3929e3ff     	strb	wzr, [sp, #0xa78]
    3148: f2c00eaa     	movk	x10, #0x75, lsl #32
    314c: f8296aaa     	str	x10, [x21, x9]
    3150: 5283b609     	mov	w9, #0x1db0             // =7600
    3154: 5283ba0a     	mov	w10, #0x1dd0            // =7632
    3158: 8b0902a9     	add	x9, x21, x9
    315c: 3d8276a0     	str	q0, [x21, #0x9d0]
    3160: 3900413f     	strb	wzr, [x9, #0x10]
    3164: 8b0a02a9     	add	x9, x21, x10
    3168: d2800eea     	mov	x10, #0x77              // =119
    316c: 3900413f     	strb	wzr, [x9, #0x10]
    3170: 5283bc89     	mov	w9, #0x1de4             // =7652
    3174: f2c00eca     	movk	x10, #0x76, lsl #32
    3178: f8296aaa     	str	x10, [x21, x9]
    317c: d2800f0a     	mov	x10, #0x78              // =120
    3180: 5283c089     	mov	w9, #0x1e04             // =7684
    3184: f2c00f8a     	movk	x10, #0x7c, lsl #32
    3188: f8296aaa     	str	x10, [x21, x9]
    318c: 5283c489     	mov	w9, #0x1e24             // =7716
    3190: d2800f0a     	mov	x10, #0x78              // =120
    3194: f90bfbff     	str	xzr, [sp, #0x17f0]
    3198: f2c00f2a     	movk	x10, #0x79, lsl #32
    319c: f8296aaa     	str	x10, [x21, x9]
    31a0: 5283c209     	mov	w9, #0x1e10             // =7696
    31a4: 5283c60a     	mov	w10, #0x1e30            // =7728
    31a8: 8b0902a9     	add	x9, x21, x9
    31ac: f90bf7ff     	str	xzr, [sp, #0x17e8]
    31b0: 3900413f     	strb	wzr, [x9, #0x10]
    31b4: 8b0a02a9     	add	x9, x21, x10
    31b8: d2800f2a     	mov	x10, #0x79              // =121
    31bc: 3900413f     	strb	wzr, [x9, #0x10]
    31c0: 5283c889     	mov	w9, #0x1e44             // =7748
    31c4: f2c00f4a     	movk	x10, #0x7a, lsl #32
    31c8: f8296aaa     	str	x10, [x21, x9]
    31cc: 5283cc89     	mov	w9, #0x1e64             // =7780
    31d0: d2800f2a     	mov	x10, #0x79              // =121
    31d4: f2c00f6a     	movk	x10, #0x7b, lsl #32
    31d8: f8296aaa     	str	x10, [x21, x9]
    31dc: 5283ce09     	mov	w9, #0x1e70             // =7792
    31e0: 8b0902a9     	add	x9, x21, x9
    31e4: d2800f4a     	mov	x10, #0x7a              // =122
    31e8: 3d85dea0     	str	q0, [x21, #0x1770]
    31ec: 3900413f     	strb	wzr, [x9, #0x10]
    31f0: 5283d089     	mov	w9, #0x1e84             // =7812
    31f4: f2c00f6a     	movk	x10, #0x7b, lsl #32
    31f8: f8296aaa     	str	x10, [x21, x9]
    31fc: d2800f4a     	mov	x10, #0x7a              // =122
    3200: 5283d489     	mov	w9, #0x1ea4             // =7844
    3204: f2c00f2a     	movk	x10, #0x79, lsl #32
    3208: f8296aaa     	str	x10, [x21, x9]
    320c: 5283d889     	mov	w9, #0x1ec4             // =7876
    3210: d2800f6a     	mov	x10, #0x7b              // =123
    3214: f90c1bff     	str	xzr, [sp, #0x1830]
    3218: f2c00f2a     	movk	x10, #0x79, lsl #32
    321c: f8296aaa     	str	x10, [x21, x9]
    3220: 5283d609     	mov	w9, #0x1eb0             // =7856
    3224: 5283da0a     	mov	w10, #0x1ed0            // =7888
    3228: 8b0902a9     	add	x9, x21, x9
    322c: f90c17ff     	str	xzr, [sp, #0x1828]
    3230: 3900413f     	strb	wzr, [x9, #0x10]
    3234: 8b0a02a9     	add	x9, x21, x10
    3238: d2800f6a     	mov	x10, #0x7b              // =123
    323c: 3900413f     	strb	wzr, [x9, #0x10]
    3240: 5283dc89     	mov	w9, #0x1ee4             // =7908
    3244: f2c00f4a     	movk	x10, #0x7a, lsl #32
    3248: f8296aaa     	str	x10, [x21, x9]
    324c: d2800f8a     	mov	x10, #0x7c              // =124
    3250: 5283e089     	mov	w9, #0x1f04             // =7940
    3254: f2c0100a     	movk	x10, #0x80, lsl #32
    3258: f8296aaa     	str	x10, [x21, x9]
    325c: 5283e489     	mov	w9, #0x1f24             // =7972
    3260: d2800f8a     	mov	x10, #0x7c              // =124
    3264: 3d85eea0     	str	q0, [x21, #0x17b0]
    3268: f2c00faa     	movk	x10, #0x7d, lsl #32
    326c: f8296aaa     	str	x10, [x21, x9]
    3270: 5283e209     	mov	w9, #0x1f10             // =7952
    3274: 5283e60a     	mov	w10, #0x1f30            // =7984
    3278: 8b0902a9     	add	x9, x21, x9
    327c: f90c3bff     	str	xzr, [sp, #0x1870]
    3280: 3900413f     	strb	wzr, [x9, #0x10]
    3284: 8b0a02a9     	add	x9, x21, x10
    3288: d2800faa     	mov	x10, #0x7d              // =125
    328c: 3900413f     	strb	wzr, [x9, #0x10]
    3290: 5283e889     	mov	w9, #0x1f44             // =8004
    3294: f2c00fca     	movk	x10, #0x7e, lsl #32
    3298: f8296aaa     	str	x10, [x21, x9]
    329c: 5283ec89     	mov	w9, #0x1f64             // =8036
    32a0: d2800faa     	mov	x10, #0x7d              // =125
    32a4: f2c00fea     	movk	x10, #0x7f, lsl #32
    32a8: f8296aaa     	str	x10, [x21, x9]
    32ac: 5283ee09     	mov	w9, #0x1f70             // =8048
    32b0: 8b0902a9     	add	x9, x21, x9
    32b4: d2800fca     	mov	x10, #0x7e              // =126
    32b8: f90c37ff     	str	xzr, [sp, #0x1868]
    32bc: 3900413f     	strb	wzr, [x9, #0x10]
    32c0: 5283f089     	mov	w9, #0x1f84             // =8068
    32c4: f2c00fea     	movk	x10, #0x7f, lsl #32
    32c8: f8296aaa     	str	x10, [x21, x9]
    32cc: 5283f609     	mov	w9, #0x1fb0             // =8112
    32d0: d2800fca     	mov	x10, #0x7e              // =126
    32d4: f2c00faa     	movk	x10, #0x7d, lsl #32
    32d8: f8286aaa     	str	x10, [x21, x8]
    32dc: 8b0902a8     	add	x8, x21, x9
    32e0: 5283fa09     	mov	w9, #0x1fd0             // =8144
    32e4: 3900411f     	strb	wzr, [x8, #0x10]
    32e8: 5283f888     	mov	w8, #0x1fc4             // =8132
    32ec: 8b0902a9     	add	x9, x21, x9
    32f0: d2800fea     	mov	x10, #0x7f              // =127
    32f4: f90c4bff     	str	xzr, [sp, #0x1890]
    32f8: 3900413f     	strb	wzr, [x9, #0x10]
    32fc: d2800fe9     	mov	x9, #0x7f               // =127
    3300: f2c00faa     	movk	x10, #0x7d, lsl #32
    3304: f8286aaa     	str	x10, [x21, x8]
    3308: 5283fc88     	mov	w8, #0x1fe4             // =8164
    330c: f2c00fc9     	movk	x9, #0x7e, lsl #32
    3310: f8286aa9     	str	x9, [x21, x8]
    3314: 52802008     	mov	w8, #0x100              // =256
    3318: 528b9b69     	mov	w9, #0x5cdb             // =23771
    331c: 2a1f03ea     	mov	w10, wzr
    3320: f9104fe8     	str	x8, [sp, #0x2098]
    3324: 52800408     	mov	w8, #0x20               // =32
    3328: 72b19c49     	movk	w9, #0x8ce2, lsl #16
    332c: f90c47ff     	str	xzr, [sp, #0x1888]
    3330: 3d8606a0     	str	q0, [x21, #0x1810]
    3334: f90c6bff     	str	xzr, [sp, #0x18d0]
    3338: f90c67ff     	str	xzr, [sp, #0x18c8]
    333c: f90c7bff     	str	xzr, [sp, #0x18f0]
    3340: f90c77ff     	str	xzr, [sp, #0x18e8]
    3344: 3d861ea0     	str	q0, [x21, #0x1870]
    3348: f90c9bff     	str	xzr, [sp, #0x1930]
    334c: f90c97ff     	str	xzr, [sp, #0x1928]
    3350: 3d862ea0     	str	q0, [x21, #0x18b0]
    3354: f90cbbff     	str	xzr, [sp, #0x1970]
    3358: f90cb7ff     	str	xzr, [sp, #0x1968]
    335c: f90ccbff     	str	xzr, [sp, #0x1990]
    3360: f90cc7ff     	str	xzr, [sp, #0x1988]
    3364: 3d8646a0     	str	q0, [x21, #0x1910]
    3368: f90cebff     	str	xzr, [sp, #0x19d0]
    336c: f90ce7ff     	str	xzr, [sp, #0x19c8]
    3370: f90cfbff     	str	xzr, [sp, #0x19f0]
    3374: f90cf7ff     	str	xzr, [sp, #0x19e8]
    3378: 3d865ea0     	str	q0, [x21, #0x1970]
    337c: f90d1bff     	str	xzr, [sp, #0x1a30]
    3380: f90d17ff     	str	xzr, [sp, #0x1a28]
    3384: 3d866ea0     	str	q0, [x21, #0x19b0]
    3388: f90d3bff     	str	xzr, [sp, #0x1a70]
    338c: f90d37ff     	str	xzr, [sp, #0x1a68]
    3390: f90d4bff     	str	xzr, [sp, #0x1a90]
    3394: f90d47ff     	str	xzr, [sp, #0x1a88]
    3398: f90d5bff     	str	xzr, [sp, #0x1ab0]
    339c: f90d57ff     	str	xzr, [sp, #0x1aa8]
    33a0: 3d868ea0     	str	q0, [x21, #0x1a30]
    33a4: f90d7bff     	str	xzr, [sp, #0x1af0]
    33a8: f90d77ff     	str	xzr, [sp, #0x1ae8]
    33ac: 3d869ea0     	str	q0, [x21, #0x1a70]
    33b0: f90d9bff     	str	xzr, [sp, #0x1b30]
    33b4: f90d97ff     	str	xzr, [sp, #0x1b28]
    33b8: 3d86aea0     	str	q0, [x21, #0x1ab0]
    33bc: f90dbbff     	str	xzr, [sp, #0x1b70]
    33c0: f90db7ff     	str	xzr, [sp, #0x1b68]
    33c4: f90dcbff     	str	xzr, [sp, #0x1b90]
    33c8: f90dc7ff     	str	xzr, [sp, #0x1b88]
    33cc: 3d86c6a0     	str	q0, [x21, #0x1b10]
    33d0: f90debff     	str	xzr, [sp, #0x1bd0]
    33d4: f90de7ff     	str	xzr, [sp, #0x1bc8]
    33d8: f90dfbff     	str	xzr, [sp, #0x1bf0]
    33dc: f90df7ff     	str	xzr, [sp, #0x1be8]
    33e0: 3d86dea0     	str	q0, [x21, #0x1b70]
    33e4: f90e1bff     	str	xzr, [sp, #0x1c30]
    33e8: f90e17ff     	str	xzr, [sp, #0x1c28]
    33ec: 3d86eea0     	str	q0, [x21, #0x1bb0]
    33f0: f90e3bff     	str	xzr, [sp, #0x1c70]
    33f4: f90e37ff     	str	xzr, [sp, #0x1c68]
    33f8: f90e4bff     	str	xzr, [sp, #0x1c90]
    33fc: f90e47ff     	str	xzr, [sp, #0x1c88]
    3400: 3d8706a0     	str	q0, [x21, #0x1c10]
    3404: f90e6bff     	str	xzr, [sp, #0x1cd0]
    3408: f90e67ff     	str	xzr, [sp, #0x1cc8]
    340c: f90e7bff     	str	xzr, [sp, #0x1cf0]
    3410: f90e77ff     	str	xzr, [sp, #0x1ce8]
    3414: 3d871ea0     	str	q0, [x21, #0x1c70]
    3418: f90e9bff     	str	xzr, [sp, #0x1d30]
    341c: f90e97ff     	str	xzr, [sp, #0x1d28]
    3420: 3d872ea0     	str	q0, [x21, #0x1cb0]
    3424: f90ebbff     	str	xzr, [sp, #0x1d70]
    3428: f90eb7ff     	str	xzr, [sp, #0x1d68]
    342c: f90ecbff     	str	xzr, [sp, #0x1d90]
    3430: f90ec7ff     	str	xzr, [sp, #0x1d88]
    3434: f90edbff     	str	xzr, [sp, #0x1db0]
    3438: f90ed7ff     	str	xzr, [sp, #0x1da8]
    343c: 3d874ea0     	str	q0, [x21, #0x1d30]
    3440: f90efbff     	str	xzr, [sp, #0x1df0]
    3444: f90ef7ff     	str	xzr, [sp, #0x1de8]
    3448: 3d875ea0     	str	q0, [x21, #0x1d70]
    344c: f90f1bff     	str	xzr, [sp, #0x1e30]
    3450: f90f17ff     	str	xzr, [sp, #0x1e28]
    3454: 3d876ea0     	str	q0, [x21, #0x1db0]
    3458: f90f3bff     	str	xzr, [sp, #0x1e70]
    345c: f90f37ff     	str	xzr, [sp, #0x1e68]
    3460: f90f4bff     	str	xzr, [sp, #0x1e90]
    3464: f90f47ff     	str	xzr, [sp, #0x1e88]
    3468: 3d8786a0     	str	q0, [x21, #0x1e10]
    346c: f90f6bff     	str	xzr, [sp, #0x1ed0]
    3470: f90f67ff     	str	xzr, [sp, #0x1ec8]
    3474: f90f7bff     	str	xzr, [sp, #0x1ef0]
    3478: f90f77ff     	str	xzr, [sp, #0x1ee8]
    347c: 3d879ea0     	str	q0, [x21, #0x1e70]
    3480: f90f9bff     	str	xzr, [sp, #0x1f30]
    3484: f90f97ff     	str	xzr, [sp, #0x1f28]
    3488: 3d87aea0     	str	q0, [x21, #0x1eb0]
    348c: f90fbbff     	str	xzr, [sp, #0x1f70]
    3490: f90fb7ff     	str	xzr, [sp, #0x1f68]
    3494: f90fcbff     	str	xzr, [sp, #0x1f90]
    3498: f90fc7ff     	str	xzr, [sp, #0x1f88]
    349c: 3d87c6a0     	str	q0, [x21, #0x1f10]
    34a0: f90febff     	str	xzr, [sp, #0x1fd0]
    34a4: f90fe7ff     	str	xzr, [sp, #0x1fc8]
    34a8: f90ffbff     	str	xzr, [sp, #0x1ff0]
    34ac: f90ff7ff     	str	xzr, [sp, #0x1fe8]
    34b0: 3d87dea0     	str	q0, [x21, #0x1f70]
    34b4: f9101bff     	str	xzr, [sp, #0x2030]
    34b8: f91017ff     	str	xzr, [sp, #0x2028]
    34bc: 3d87eea0     	str	q0, [x21, #0x1fb0]
    34c0: f9103bff     	str	xzr, [sp, #0x2070]
    34c4: f91037ff     	str	xzr, [sp, #0x2068]
    34c8: f9104bff     	str	xzr, [sp, #0x2090]
    34cc: f91047ff     	str	xzr, [sp, #0x2088]
    34d0: 3400ea28     	cbz	w8, 0x5214 <.text+0x3b34>
    34d4: 51000508     	sub	w8, w8, #0x1
    34d8: aa1f03eb     	mov	x11, xzr
    34dc: 1ac8252c     	lsr	w12, w9, w8
    34e0: 1200018d     	and	w13, w12, #0x1
    34e4: 14000004     	b	0x34f4 <.text+0x1e14>
    34e8: 9100816b     	add	x11, x11, #0x20
    34ec: f140097f     	cmp	x11, #0x2, lsl #12      // =0x2000
    34f0: 5400e920     	b.eq	0x5214 <.text+0x3b34>
    34f4: 8b0b02ac     	add	x12, x21, x11
    34f8: b940058e     	ldr	w14, [x12, #0x4]
    34fc: 6b0a01df     	cmp	w14, w10
    3500: 54ffff41     	b.ne	0x34e8 <.text+0x1e08>
    3504: 3940018e     	ldrb	w14, [x12]
    3508: 6b0d01df     	cmp	w14, w13
    350c: 54fffee1     	b.ne	0x34e8 <.text+0x1e08>
    3510: a941358b     	ldp	x11, x13, [x12, #0x10]
    3514: 924001ae     	and	x14, x13, #0x1
    3518: f10001bf     	cmp	x13, #0x0
    351c: aa0b01ca     	orr	x10, x14, x11
    3520: fa401944     	ccmp	x10, #0x0, #0x4, ne
    3524: 1a9f17ef     	cset	w15, eq
    3528: b500006b     	cbnz	x11, 0x3534 <.text+0x1e54>
    352c: b940098a     	ldr	w10, [x12, #0x8]
    3530: 3707fd0f     	tbnz	w15, #0x0, 0x34d0 <.text+0x1df0>
    3534: 910103e8     	add	x8, sp, #0x40
    3538: 8b8d0500     	add	x0, x8, x13, asr #1
    353c: b400006e     	cbz	x14, 0x3548 <.text+0x1e68>
    3540: f9400008     	ldr	x8, [x0]
    3544: f86b690b     	ldr	x11, [x8, x11]
    3548: d63f0160     	blr	x11
    354c: 910103e0     	add	x0, sp, #0x40
    3550: 94000e54     	bl	0x6ea0 <strlen@plt>
    3554: aa0003e1     	mov	x1, x0
    3558: 910103e0     	add	x0, sp, #0x40
    355c: 94000750     	bl	0x529c <.text+0x3bbc>
    3560: 90000049     	adrp	x9, 0xb000
    3564: f9405129     	ldr	x9, [x9, #0xa0]
    3568: f9400128     	ldr	x8, [x9]
    356c: f85e810a     	ldur	x10, [x8, #-0x18]
    3570: 910263e8     	add	x8, sp, #0x98
    3574: 8b0a0120     	add	x0, x9, x10
    3578: 94000e3a     	bl	0x6e60 <_ZNKSt6__ndk18ios_base6getlocEv@plt>
    357c: 90000041     	adrp	x1, 0xb000
    3580: 910263e0     	add	x0, sp, #0x98
    3584: f9405c21     	ldr	x1, [x1, #0xb8]
    3588: 94000e3e     	bl	0x6e80 <_ZNKSt6__ndk16locale9use_facetERNS0_2idE@plt>
    358c: f9400008     	ldr	x8, [x0]
    3590: f9401d08     	ldr	x8, [x8, #0x38]
    3594: 52800141     	mov	w1, #0xa                // =10
    3598: d63f0100     	blr	x8
    359c: 2a0003f4     	mov	w20, w0
    35a0: 910263e0     	add	x0, sp, #0x98
    35a4: 910263f7     	add	x23, sp, #0x98
    35a8: 94000e32     	bl	0x6e70 <_ZNSt6__ndk16localeD1Ev@plt>
    35ac: 90000053     	adrp	x19, 0xb000
    35b0: 2a1403e1     	mov	w1, w20
    35b4: f9405273     	ldr	x19, [x19, #0xa0]
    35b8: aa1303e0     	mov	x0, x19
    35bc: 94000e3d     	bl	0x6eb0 <_ZNSt6__ndk113basic_ostreamIcNS_11char_traitsIcEEE3putEc@plt>
    35c0: aa1303e0     	mov	x0, x19
    35c4: 94000e3f     	bl	0x6ec0 <_ZNSt6__ndk113basic_ostreamIcNS_11char_traitsIcEEE5flushEv@plt>
    35c8: d280008a     	mov	x10, #0x4               // =4
    35cc: 910412e9     	add	x9, x23, #0x104
    35d0: d2800beb     	mov	x11, #0x5f              // =95
    35d4: f2c0010a     	movk	x10, #0x8, lsl #32
    35d8: f2c00bab     	movk	x11, #0x5d, lsl #32
    35dc: d2800bac     	mov	x12, #0x5d              // =93
    35e0: f900012a     	str	x10, [x9]
    35e4: d280008a     	mov	x10, #0x4               // =4
    35e8: f2c00bcc     	movk	x12, #0x5e, lsl #32
    35ec: f2c000aa     	movk	x10, #0x5, lsl #32
    35f0: d2800b4d     	mov	x13, #0x5a              // =90
    35f4: d280094e     	mov	x14, #0x4a              // =74
    35f8: 910492e9     	add	x9, x23, #0x124
    35fc: f2c00b6d     	movk	x13, #0x5b, lsl #32
    3600: f2c0096e     	movk	x14, #0x4b, lsl #32
    3604: f900012a     	str	x10, [x9]
    3608: d28000aa     	mov	x10, #0x5               // =5
    360c: 52800028     	mov	w8, #0x1                // =1
    3610: f2c000ca     	movk	x10, #0x6, lsl #32
    3614: 390263e8     	strb	w8, [sp, #0x98]
    3618: 6f00e400     	movi	v0.2d, #0000000000000000
    361c: 910512e9     	add	x9, x23, #0x144
    3620: 3903e3e8     	strb	w8, [sp, #0xf8]
    3624: f900012a     	str	x10, [x9]
    3628: d28000aa     	mov	x10, #0x5               // =5
    362c: f2c000ea     	movk	x10, #0x7, lsl #32
    3630: 3904e3e8     	strb	w8, [sp, #0x138]
    3634: 910592e9     	add	x9, x23, #0x164
    3638: 3906e3e8     	strb	w8, [sp, #0x1b8]
    363c: f900012a     	str	x10, [x9]
    3640: d28000ca     	mov	x10, #0x6               // =6
    3644: f2c000ea     	movk	x10, #0x7, lsl #32
    3648: 3907e3e8     	strb	w8, [sp, #0x1f8]
    364c: 910612e9     	add	x9, x23, #0x184
    3650: 3908e3e8     	strb	w8, [sp, #0x238]
    3654: f900012a     	str	x10, [x9]
    3658: d28000ca     	mov	x10, #0x6               // =6
    365c: f2c000aa     	movk	x10, #0x5, lsl #32
    3660: 390ae3e8     	strb	w8, [sp, #0x2b8]
    3664: 910692e9     	add	x9, x23, #0x1a4
    3668: 390be3e8     	strb	w8, [sp, #0x2f8]
    366c: f900012a     	str	x10, [x9]
    3670: d28000ea     	mov	x10, #0x7               // =7
    3674: f2c000aa     	movk	x10, #0x5, lsl #32
    3678: 390ce3e8     	strb	w8, [sp, #0x338]
    367c: 910712e9     	add	x9, x23, #0x1c4
    3680: 390ee3e8     	strb	w8, [sp, #0x3b8]
    3684: f900012a     	str	x10, [x9]
    3688: d28000ea     	mov	x10, #0x7               // =7
    368c: f2c000ca     	movk	x10, #0x6, lsl #32
    3690: 390fe3e8     	strb	w8, [sp, #0x3f8]
    3694: 910792e9     	add	x9, x23, #0x1e4
    3698: 3910e3e8     	strb	w8, [sp, #0x438]
    369c: f900012a     	str	x10, [x9]
    36a0: d280010a     	mov	x10, #0x8               // =8
    36a4: f2c0018a     	movk	x10, #0xc, lsl #32
    36a8: 391263e8     	strb	w8, [sp, #0x498]
    36ac: 910812e9     	add	x9, x23, #0x204
    36b0: 3913e3e8     	strb	w8, [sp, #0x4f8]
    36b4: f900012a     	str	x10, [x9]
    36b8: d280010a     	mov	x10, #0x8               // =8
    36bc: f2c0012a     	movk	x10, #0x9, lsl #32
    36c0: 3914e3e8     	strb	w8, [sp, #0x538]
    36c4: 910892e9     	add	x9, x23, #0x224
    36c8: 391663e8     	strb	w8, [sp, #0x598]
    36cc: f900012a     	str	x10, [x9]
    36d0: d280012a     	mov	x10, #0x9               // =9
    36d4: f2c0014a     	movk	x10, #0xa, lsl #32
    36d8: 3917e3e8     	strb	w8, [sp, #0x5f8]
    36dc: 910912e9     	add	x9, x23, #0x244
    36e0: 3918e3e8     	strb	w8, [sp, #0x638]
    36e4: f900012a     	str	x10, [x9]
    36e8: d280012a     	mov	x10, #0x9               // =9
    36ec: f2c0016a     	movk	x10, #0xb, lsl #32
    36f0: 391ae3e8     	strb	w8, [sp, #0x6b8]
    36f4: 910992e9     	add	x9, x23, #0x264
    36f8: 391be3e8     	strb	w8, [sp, #0x6f8]
    36fc: f900012a     	str	x10, [x9]
    3700: d280014a     	mov	x10, #0xa               // =10
    3704: f2c0016a     	movk	x10, #0xb, lsl #32
    3708: 391ce3e8     	strb	w8, [sp, #0x738]
    370c: 910a12e9     	add	x9, x23, #0x284
    3710: 391e63e8     	strb	w8, [sp, #0x798]
    3714: f900012a     	str	x10, [x9]
    3718: d280014a     	mov	x10, #0xa               // =10
    371c: f2c0012a     	movk	x10, #0x9, lsl #32
    3720: 391fe3e8     	strb	w8, [sp, #0x7f8]
    3724: 910a92e9     	add	x9, x23, #0x2a4
    3728: 3920e3e8     	strb	w8, [sp, #0x838]
    372c: f900012a     	str	x10, [x9]
    3730: d280016a     	mov	x10, #0xb               // =11
    3734: f2c0012a     	movk	x10, #0x9, lsl #32
    3738: 392263e8     	strb	w8, [sp, #0x898]
    373c: 910b12e9     	add	x9, x23, #0x2c4
    3740: 3923e3e8     	strb	w8, [sp, #0x8f8]
    3744: f900012a     	str	x10, [x9]
    3748: d280016a     	mov	x10, #0xb               // =11
    374c: f2c0014a     	movk	x10, #0xa, lsl #32
    3750: 3924e3e8     	strb	w8, [sp, #0x938]
    3754: 910b92e9     	add	x9, x23, #0x2e4
    3758: 3926e3e8     	strb	w8, [sp, #0x9b8]
    375c: f900012a     	str	x10, [x9]
    3760: d280018a     	mov	x10, #0xc               // =12
    3764: f2c0020a     	movk	x10, #0x10, lsl #32
    3768: 3927e3e8     	strb	w8, [sp, #0x9f8]
    376c: 910c12e9     	add	x9, x23, #0x304
    3770: 3928e3e8     	strb	w8, [sp, #0xa38]
    3774: f900012a     	str	x10, [x9]
    3778: d280018a     	mov	x10, #0xc               // =12
    377c: f2c001aa     	movk	x10, #0xd, lsl #32
    3780: 392a63e8     	strb	w8, [sp, #0xa98]
    3784: 910c92e9     	add	x9, x23, #0x324
    3788: 392be3e8     	strb	w8, [sp, #0xaf8]
    378c: f900012a     	str	x10, [x9]
    3790: d28001aa     	mov	x10, #0xd               // =13
    3794: f2c001ca     	movk	x10, #0xe, lsl #32
    3798: 391e82c8     	strb	w8, [x22, #0x7a0]
    379c: 910d12e9     	add	x9, x23, #0x344
    37a0: 391d82c8     	strb	w8, [x22, #0x760]
    37a4: f900012a     	str	x10, [x9]
    37a8: d28001aa     	mov	x10, #0xd               // =13
    37ac: f2c001ea     	movk	x10, #0xf, lsl #32
    37b0: 391c02c8     	strb	w8, [x22, #0x700]
    37b4: 910d92e9     	add	x9, x23, #0x364
    37b8: 391a82c8     	strb	w8, [x22, #0x6a0]
    37bc: f900012a     	str	x10, [x9]
    37c0: d28001ca     	mov	x10, #0xe               // =14
    37c4: f2c001ea     	movk	x10, #0xf, lsl #32
    37c8: 391982c8     	strb	w8, [x22, #0x660]
    37cc: 910e12e9     	add	x9, x23, #0x384
    37d0: 391882c8     	strb	w8, [x22, #0x620]
    37d4: f900012a     	str	x10, [x9]
    37d8: d28001ca     	mov	x10, #0xe               // =14
    37dc: f2c001aa     	movk	x10, #0xd, lsl #32
    37e0: 391682c8     	strb	w8, [x22, #0x5a0]
    37e4: 910e92e9     	add	x9, x23, #0x3a4
    37e8: 391582c8     	strb	w8, [x22, #0x560]
    37ec: f900012a     	str	x10, [x9]
    37f0: d28001ea     	mov	x10, #0xf               // =15
    37f4: f2c001aa     	movk	x10, #0xd, lsl #32
    37f8: 391482c8     	strb	w8, [x22, #0x520]
    37fc: 910f12e9     	add	x9, x23, #0x3c4
    3800: 391282c8     	strb	w8, [x22, #0x4a0]
    3804: f900012a     	str	x10, [x9]
    3808: d28001ea     	mov	x10, #0xf               // =15
    380c: f2c001ca     	movk	x10, #0xe, lsl #32
    3810: 391182c8     	strb	w8, [x22, #0x460]
    3814: 910f92e9     	add	x9, x23, #0x3e4
    3818: 391082c8     	strb	w8, [x22, #0x420]
    381c: f900012a     	str	x10, [x9]
    3820: d280020a     	mov	x10, #0x10              // =16
    3824: f2c0028a     	movk	x10, #0x14, lsl #32
    3828: 390e82c8     	strb	w8, [x22, #0x3a0]
    382c: 911012e9     	add	x9, x23, #0x404
    3830: 390d82c8     	strb	w8, [x22, #0x360]
    3834: f900012a     	str	x10, [x9]
    3838: d280020a     	mov	x10, #0x10              // =16
    383c: f2c0022a     	movk	x10, #0x11, lsl #32
    3840: 390c82c8     	strb	w8, [x22, #0x320]
    3844: 911092e9     	add	x9, x23, #0x424
    3848: 390a82c8     	strb	w8, [x22, #0x2a0]
    384c: f900012a     	str	x10, [x9]
    3850: d280022a     	mov	x10, #0x11              // =17
    3854: f2c0024a     	movk	x10, #0x12, lsl #32
    3858: 390982c8     	strb	w8, [x22, #0x260]
    385c: 911112e9     	add	x9, x23, #0x444
    3860: 390802c8     	strb	w8, [x22, #0x200]
    3864: f900012a     	str	x10, [x9]
    3868: d280022a     	mov	x10, #0x11              // =17
    386c: f2c0026a     	movk	x10, #0x13, lsl #32
    3870: 390682c8     	strb	w8, [x22, #0x1a0]
    3874: 911192e9     	add	x9, x23, #0x464
    3878: 390582c8     	strb	w8, [x22, #0x160]
    387c: f900012a     	str	x10, [x9]
    3880: d280024a     	mov	x10, #0x12              // =18
    3884: f2c0026a     	movk	x10, #0x13, lsl #32
    3888: 390402c8     	strb	w8, [x22, #0x100]
    388c: 911212e9     	add	x9, x23, #0x484
    3890: 390282c8     	strb	w8, [x22, #0xa0]
    3894: f900012a     	str	x10, [x9]
    3898: d280024a     	mov	x10, #0x12              // =18
    389c: f2c0022a     	movk	x10, #0x11, lsl #32
    38a0: 390182c8     	strb	w8, [x22, #0x60]
    38a4: 911292e9     	add	x9, x23, #0x4a4
    38a8: 390082c8     	strb	w8, [x22, #0x20]
    38ac: f900012a     	str	x10, [x9]
    38b0: d280026a     	mov	x10, #0x13              // =19
    38b4: f2c0022a     	movk	x10, #0x11, lsl #32
    38b8: 393e82a8     	strb	w8, [x21, #0xfa0]
    38bc: 911312e9     	add	x9, x23, #0x4c4
    38c0: 393d82a8     	strb	w8, [x21, #0xf60]
    38c4: f900012a     	str	x10, [x9]
    38c8: d280026a     	mov	x10, #0x13              // =19
    38cc: f2c0024a     	movk	x10, #0x12, lsl #32
    38d0: 393c02a8     	strb	w8, [x21, #0xf00]
    38d4: 911392e9     	add	x9, x23, #0x4e4
    38d8: 393ce3e8     	strb	w8, [sp, #0xf38]
    38dc: f900012a     	str	x10, [x9]
    38e0: d280028a     	mov	x10, #0x14              // =20
    38e4: f2c0030a     	movk	x10, #0x18, lsl #32
    38e8: 393be3e8     	strb	w8, [sp, #0xef8]
    38ec: 911412e9     	add	x9, x23, #0x504
    38f0: 393a63e8     	strb	w8, [sp, #0xe98]
    38f4: f900012a     	str	x10, [x9]
    38f8: d280028a     	mov	x10, #0x14              // =20
    38fc: f2c002aa     	movk	x10, #0x15, lsl #32
    3900: 3938e3e8     	strb	w8, [sp, #0xe38]
    3904: 911492e9     	add	x9, x23, #0x524
    3908: 3937e3e8     	strb	w8, [sp, #0xdf8]
    390c: f900012a     	str	x10, [x9]
    3910: d28002aa     	mov	x10, #0x15              // =21
    3914: f2c002ca     	movk	x10, #0x16, lsl #32
    3918: 393663e8     	strb	w8, [sp, #0xd98]
    391c: 911512e9     	add	x9, x23, #0x544
    3920: 3934e3e8     	strb	w8, [sp, #0xd38]
    3924: f900012a     	str	x10, [x9]
    3928: d28002aa     	mov	x10, #0x15              // =21
    392c: f2c002ea     	movk	x10, #0x17, lsl #32
    3930: 3933e3e8     	strb	w8, [sp, #0xcf8]
    3934: 911592e9     	add	x9, x23, #0x564
    3938: 3932e3e8     	strb	w8, [sp, #0xcb8]
    393c: f900012a     	str	x10, [x9]
    3940: d28002ca     	mov	x10, #0x16              // =22
    3944: f2c002ea     	movk	x10, #0x17, lsl #32
    3948: 392fe3e8     	strb	w8, [sp, #0xbf8]
    394c: 911612e9     	add	x9, x23, #0x584
    3950: 3930e3e8     	strb	w8, [sp, #0xc38]
    3954: f900012a     	str	x10, [x9]
    3958: d28002ca     	mov	x10, #0x16              // =22
    395c: f2c002aa     	movk	x10, #0x15, lsl #32
    3960: 392e63e8     	strb	w8, [sp, #0xb98]
    3964: 911692e9     	add	x9, x23, #0x5a4
    3968: 392ce3e8     	strb	w8, [sp, #0xb38]
    396c: f900012a     	str	x10, [x9]
    3970: d28002ea     	mov	x10, #0x17              // =23
    3974: f2c002aa     	movk	x10, #0x15, lsl #32
    3978: 392002c8     	strb	w8, [x22, #0x800]
    397c: 911712e9     	add	x9, x23, #0x5c4
    3980: 392182c8     	strb	w8, [x22, #0x860]
    3984: f900012a     	str	x10, [x9]
    3988: d28002ea     	mov	x10, #0x17              // =23
    398c: f2c002ca     	movk	x10, #0x16, lsl #32
    3990: 392282c8     	strb	w8, [x22, #0x8a0]
    3994: 911792e9     	add	x9, x23, #0x5e4
    3998: 392402c8     	strb	w8, [x22, #0x900]
    399c: f900012a     	str	x10, [x9]
    39a0: d280030a     	mov	x10, #0x18              // =24
    39a4: f2c0038a     	movk	x10, #0x1c, lsl #32
    39a8: 392582c8     	strb	w8, [x22, #0x960]
    39ac: 911812e9     	add	x9, x23, #0x604
    39b0: 392682c8     	strb	w8, [x22, #0x9a0]
    39b4: f900012a     	str	x10, [x9]
    39b8: d280030a     	mov	x10, #0x18              // =24
    39bc: f2c0032a     	movk	x10, #0x19, lsl #32
    39c0: 392802c8     	strb	w8, [x22, #0xa00]
    39c4: 911892e9     	add	x9, x23, #0x624
    39c8: 392982c8     	strb	w8, [x22, #0xa60]
    39cc: f900012a     	str	x10, [x9]
    39d0: d280032a     	mov	x10, #0x19              // =25
    39d4: f2c0034a     	movk	x10, #0x1a, lsl #32
    39d8: 392a82c8     	strb	w8, [x22, #0xaa0]
    39dc: 911912e9     	add	x9, x23, #0x644
    39e0: 392c02c8     	strb	w8, [x22, #0xb00]
    39e4: f900012a     	str	x10, [x9]
    39e8: d280032a     	mov	x10, #0x19              // =25
    39ec: f2c0036a     	movk	x10, #0x1b, lsl #32
    39f0: 392d82c8     	strb	w8, [x22, #0xb60]
    39f4: 911992e9     	add	x9, x23, #0x664
    39f8: 392e82c8     	strb	w8, [x22, #0xba0]
    39fc: f900012a     	str	x10, [x9]
    3a00: d280034a     	mov	x10, #0x1a              // =26
    3a04: f2c0036a     	movk	x10, #0x1b, lsl #32
    3a08: 393082c8     	strb	w8, [x22, #0xc20]
    3a0c: 911a12e9     	add	x9, x23, #0x684
    3a10: 393182c8     	strb	w8, [x22, #0xc60]
    3a14: f900012a     	str	x10, [x9]
    3a18: d280034a     	mov	x10, #0x1a              // =26
    3a1c: f2c0032a     	movk	x10, #0x19, lsl #32
    3a20: 393282c8     	strb	w8, [x22, #0xca0]
    3a24: 911a92e9     	add	x9, x23, #0x6a4
    3a28: 393482c8     	strb	w8, [x22, #0xd20]
    3a2c: f900012a     	str	x10, [x9]
    3a30: d280036a     	mov	x10, #0x1b              // =27
    3a34: f2c0032a     	movk	x10, #0x19, lsl #32
    3a38: 393582c8     	strb	w8, [x22, #0xd60]
    3a3c: 911b12e9     	add	x9, x23, #0x6c4
    3a40: 393682c8     	strb	w8, [x22, #0xda0]
    3a44: f900012a     	str	x10, [x9]
    3a48: d280036a     	mov	x10, #0x1b              // =27
    3a4c: f2c0034a     	movk	x10, #0x1a, lsl #32
    3a50: 393802c8     	strb	w8, [x22, #0xe00]
    3a54: 911b92e9     	add	x9, x23, #0x6e4
    3a58: 393982c8     	strb	w8, [x22, #0xe60]
    3a5c: f900012a     	str	x10, [x9]
    3a60: d280038a     	mov	x10, #0x1c              // =28
    3a64: f2c0040a     	movk	x10, #0x20, lsl #32
    3a68: 393a82c8     	strb	w8, [x22, #0xea0]
    3a6c: 52800f48     	mov	w8, #0x7a               // =122
    3a70: b91f3fe8     	str	w8, [sp, #0x1f3c]
    3a74: 5283d608     	mov	w8, #0x1eb0             // =7856
    3a78: 911c12e9     	add	x9, x23, #0x704
    3a7c: 8b0802e8     	add	x8, x23, x8
    3a80: fc0042aa     	stur	d10, [x21, #0x4]
    3a84: f900012a     	str	x10, [x9]
    3a88: d280038a     	mov	x10, #0x1c              // =28
    3a8c: f2c003aa     	movk	x10, #0x1d, lsl #32
    3a90: 3900411f     	strb	wzr, [x8, #0x10]
    3a94: 5283d888     	mov	w8, #0x1ec4             // =7876
    3a98: 911c92e9     	add	x9, x23, #0x724
    3a9c: 3902e3ff     	strb	wzr, [sp, #0xb8]
    3aa0: f900012a     	str	x10, [x9]
    3aa4: d28003aa     	mov	x10, #0x1d              // =29
    3aa8: f2c003ca     	movk	x10, #0x1e, lsl #32
    3aac: fc0242ab     	stur	d11, [x21, #0x24]
    3ab0: 911d12e9     	add	x9, x23, #0x744
    3ab4: 3d8006a0     	str	q0, [x21, #0x10]
    3ab8: f900012a     	str	x10, [x9]
    3abc: d28003aa     	mov	x10, #0x1d              // =29
    3ac0: f2c003ea     	movk	x10, #0x1f, lsl #32
    3ac4: fc0442ac     	stur	d12, [x21, #0x44]
    3ac8: 911d92e9     	add	x9, x23, #0x764
    3acc: fc0642a9     	stur	d9, [x21, #0x64]
    3ad0: f900012a     	str	x10, [x9]
    3ad4: d28003ca     	mov	x10, #0x1e              // =30
    3ad8: f2c003ea     	movk	x10, #0x1f, lsl #32
    3adc: fc0842ad     	stur	d13, [x21, #0x84]
    3ae0: 911e12e9     	add	x9, x23, #0x784
    3ae4: fc0a42ae     	stur	d14, [x21, #0xa4]
    3ae8: f900012a     	str	x10, [x9]
    3aec: d28003ca     	mov	x10, #0x1e              // =30
    3af0: f2c003aa     	movk	x10, #0x1d, lsl #32
    3af4: 390563ff     	strb	wzr, [sp, #0x158]
    3af8: 911e92e9     	add	x9, x23, #0x7a4
    3afc: fc0c42af     	stur	d15, [x21, #0xc4]
    3b00: f900012a     	str	x10, [x9]
    3b04: d28003ea     	mov	x10, #0x1f              // =31
    3b08: f2c003aa     	movk	x10, #0x1d, lsl #32
    3b0c: 3905e3ff     	strb	wzr, [sp, #0x178]
    3b10: 911f12e9     	add	x9, x23, #0x7c4
    3b14: fc0e42a8     	stur	d8, [x21, #0xe4]
    3b18: f900012a     	str	x10, [x9]
    3b1c: d28003ea     	mov	x10, #0x1f              // =31
    3b20: f2c003ca     	movk	x10, #0x1e, lsl #32
    3b24: 390663ff     	strb	wzr, [sp, #0x198]
    3b28: 911f92e9     	add	x9, x23, #0x7e4
    3b2c: 390763ff     	strb	wzr, [sp, #0x1d8]
    3b30: f900012a     	str	x10, [x9]
    3b34: d280040a     	mov	x10, #0x20              // =32
    3b38: f2c0048a     	movk	x10, #0x24, lsl #32
    3b3c: 390863ff     	strb	wzr, [sp, #0x218]
    3b40: 912012e9     	add	x9, x23, #0x804
    3b44: 390963ff     	strb	wzr, [sp, #0x258]
    3b48: f900012a     	str	x10, [x9]
    3b4c: d280040a     	mov	x10, #0x20              // =32
    3b50: f2c0042a     	movk	x10, #0x21, lsl #32
    3b54: 3909e3ff     	strb	wzr, [sp, #0x278]
    3b58: 912092e9     	add	x9, x23, #0x824
    3b5c: 390a63ff     	strb	wzr, [sp, #0x298]
    3b60: f900012a     	str	x10, [x9]
    3b64: d280042a     	mov	x10, #0x21              // =33
    3b68: f2c0044a     	movk	x10, #0x22, lsl #32
    3b6c: 390b63ff     	strb	wzr, [sp, #0x2d8]
    3b70: 912112e9     	add	x9, x23, #0x844
    3b74: 390c63ff     	strb	wzr, [sp, #0x318]
    3b78: f900012a     	str	x10, [x9]
    3b7c: d280042a     	mov	x10, #0x21              // =33
    3b80: f2c0046a     	movk	x10, #0x23, lsl #32
    3b84: 390d63ff     	strb	wzr, [sp, #0x358]
    3b88: 912192e9     	add	x9, x23, #0x864
    3b8c: 390de3ff     	strb	wzr, [sp, #0x378]
    3b90: f900012a     	str	x10, [x9]
    3b94: d280044a     	mov	x10, #0x22              // =34
    3b98: f2c0046a     	movk	x10, #0x23, lsl #32
    3b9c: 390e63ff     	strb	wzr, [sp, #0x398]
    3ba0: 912212e9     	add	x9, x23, #0x884
    3ba4: 390363ff     	strb	wzr, [sp, #0xd8]
    3ba8: f900012a     	str	x10, [x9]
    3bac: d280044a     	mov	x10, #0x22              // =34
    3bb0: f2c0042a     	movk	x10, #0x21, lsl #32
    3bb4: 390f63ff     	strb	wzr, [sp, #0x3d8]
    3bb8: 912292e9     	add	x9, x23, #0x8a4
    3bbc: 391063ff     	strb	wzr, [sp, #0x418]
    3bc0: f900012a     	str	x10, [x9]
    3bc4: d280046a     	mov	x10, #0x23              // =35
    3bc8: f2c0042a     	movk	x10, #0x21, lsl #32
    3bcc: 391163ff     	strb	wzr, [sp, #0x458]
    3bd0: 912312e9     	add	x9, x23, #0x8c4
    3bd4: 3911e3ff     	strb	wzr, [sp, #0x478]
    3bd8: f900012a     	str	x10, [x9]
    3bdc: d280046a     	mov	x10, #0x23              // =35
    3be0: f2c0044a     	movk	x10, #0x22, lsl #32
    3be4: 390463ff     	strb	wzr, [sp, #0x118]
    3be8: 912392e9     	add	x9, x23, #0x8e4
    3bec: 3912e3ff     	strb	wzr, [sp, #0x4b8]
    3bf0: f900012a     	str	x10, [x9]
    3bf4: d280048a     	mov	x10, #0x24              // =36
    3bf8: f2c0050a     	movk	x10, #0x28, lsl #32
    3bfc: 391363ff     	strb	wzr, [sp, #0x4d8]
    3c00: 912412e9     	add	x9, x23, #0x904
    3c04: 391463ff     	strb	wzr, [sp, #0x518]
    3c08: f900012a     	str	x10, [x9]
    3c0c: d280048a     	mov	x10, #0x24              // =36
    3c10: f2c004aa     	movk	x10, #0x25, lsl #32
    3c14: 391563ff     	strb	wzr, [sp, #0x558]
    3c18: 912492e9     	add	x9, x23, #0x924
    3c1c: 3915e3ff     	strb	wzr, [sp, #0x578]
    3c20: f900012a     	str	x10, [x9]
    3c24: d28004aa     	mov	x10, #0x25              // =37
    3c28: f2c004ca     	movk	x10, #0x26, lsl #32
    3c2c: 3916e3ff     	strb	wzr, [sp, #0x5b8]
    3c30: 912512e9     	add	x9, x23, #0x944
    3c34: 391763ff     	strb	wzr, [sp, #0x5d8]
    3c38: f900012a     	str	x10, [x9]
    3c3c: d28004aa     	mov	x10, #0x25              // =37
    3c40: f2c004ea     	movk	x10, #0x27, lsl #32
    3c44: 391863ff     	strb	wzr, [sp, #0x618]
    3c48: 912592e9     	add	x9, x23, #0x964
    3c4c: 391963ff     	strb	wzr, [sp, #0x658]
    3c50: f900012a     	str	x10, [x9]
    3c54: d28004ca     	mov	x10, #0x26              // =38
    3c58: f2c004ea     	movk	x10, #0x27, lsl #32
    3c5c: 3919e3ff     	strb	wzr, [sp, #0x678]
    3c60: 912612e9     	add	x9, x23, #0x984
    3c64: 391a63ff     	strb	wzr, [sp, #0x698]
    3c68: f900012a     	str	x10, [x9]
    3c6c: d28004ca     	mov	x10, #0x26              // =38
    3c70: f2c004aa     	movk	x10, #0x25, lsl #32
    3c74: 391b63ff     	strb	wzr, [sp, #0x6d8]
    3c78: 912692e9     	add	x9, x23, #0x9a4
    3c7c: 391c63ff     	strb	wzr, [sp, #0x718]
    3c80: f900012a     	str	x10, [x9]
    3c84: d28004ea     	mov	x10, #0x27              // =39
    3c88: f2c004aa     	movk	x10, #0x25, lsl #32
    3c8c: 391d63ff     	strb	wzr, [sp, #0x758]
    3c90: 912712e9     	add	x9, x23, #0x9c4
    3c94: 391de3ff     	strb	wzr, [sp, #0x778]
    3c98: f900012a     	str	x10, [x9]
    3c9c: d28004ea     	mov	x10, #0x27              // =39
    3ca0: f2c004ca     	movk	x10, #0x26, lsl #32
    3ca4: 391ee3ff     	strb	wzr, [sp, #0x7b8]
    3ca8: 912792e9     	add	x9, x23, #0x9e4
    3cac: 391f63ff     	strb	wzr, [sp, #0x7d8]
    3cb0: f900012a     	str	x10, [x9]
    3cb4: d280050a     	mov	x10, #0x28              // =40
    3cb8: f2c0058a     	movk	x10, #0x2c, lsl #32
    3cbc: 392063ff     	strb	wzr, [sp, #0x818]
    3cc0: 912812e9     	add	x9, x23, #0xa04
    3cc4: 392163ff     	strb	wzr, [sp, #0x858]
    3cc8: f900012a     	str	x10, [x9]
    3ccc: d280050a     	mov	x10, #0x28              // =40
    3cd0: f2c0052a     	movk	x10, #0x29, lsl #32
    3cd4: 3921e3ff     	strb	wzr, [sp, #0x878]
    3cd8: d503201f     	nop
    3cdc: 1000c389     	adr	x9, 0x554c <.text+0x3e6c>
    3ce0: 3922e3ff     	strb	wzr, [sp, #0x8b8]
    3ce4: f90557e9     	str	x9, [sp, #0xaa8]
    3ce8: 912892e9     	add	x9, x23, #0xa24
    3cec: f900012a     	str	x10, [x9]
    3cf0: d280052a     	mov	x10, #0x29              // =41
    3cf4: f2c0054a     	movk	x10, #0x2a, lsl #32
    3cf8: 392363ff     	strb	wzr, [sp, #0x8d8]
    3cfc: 912912e9     	add	x9, x23, #0xa44
    3d00: 392463ff     	strb	wzr, [sp, #0x918]
    3d04: f900012a     	str	x10, [x9]
    3d08: d280052a     	mov	x10, #0x29              // =41
    3d0c: f2c0056a     	movk	x10, #0x2b, lsl #32
    3d10: 392563ff     	strb	wzr, [sp, #0x958]
    3d14: 912992e9     	add	x9, x23, #0xa64
    3d18: 3925e3ff     	strb	wzr, [sp, #0x978]
    3d1c: f900012a     	str	x10, [x9]
    3d20: d2800bca     	mov	x10, #0x5e              // =94
    3d24: f2c00bea     	movk	x10, #0x5f, lsl #32
    3d28: 392663ff     	strb	wzr, [sp, #0x998]
    3d2c: 5282f089     	mov	w9, #0x1784             // =6020
    3d30: 392763ff     	strb	wzr, [sp, #0x9d8]
    3d34: f8296aea     	str	x10, [x23, x9]
    3d38: 5282f60a     	mov	w10, #0x17b0            // =6064
    3d3c: 392863ff     	strb	wzr, [sp, #0xa18]
    3d40: 5282f889     	mov	w9, #0x17c4             // =6084
    3d44: 392963ff     	strb	wzr, [sp, #0xa58]
    3d48: f8296aeb     	str	x11, [x23, x9]
    3d4c: 5282ee0b     	mov	w11, #0x1770            // =6000
    3d50: 8b0b02eb     	add	x11, x23, x11
    3d54: 3929e3ff     	strb	wzr, [sp, #0xa78]
    3d58: 3900417f     	strb	wzr, [x11, #0x10]
    3d5c: d2800b6b     	mov	x11, #0x5b              // =91
    3d60: 8b0a02e9     	add	x9, x23, x10
    3d64: 52800baa     	mov	w10, #0x5d              // =93
    3d68: f2c00b4b     	movk	x11, #0x5a, lsl #32
    3d6c: b91843ea     	str	w10, [sp, #0x1840]
    3d70: b917ffea     	str	w10, [sp, #0x17fc]
    3d74: 5282e48a     	mov	w10, #0x1724            // =5924
    3d78: 3900413f     	strb	wzr, [x9, #0x10]
    3d7c: 52800bc9     	mov	w9, #0x5e               // =94
    3d80: b9183fe9     	str	w9, [sp, #0x183c]
    3d84: 5282e209     	mov	w9, #0x1710             // =5904
    3d88: 8b0902e9     	add	x9, x23, x9
    3d8c: f9055bff     	str	xzr, [sp, #0xab0]
    3d90: 3900413f     	strb	wzr, [x9, #0x10]
    3d94: 5282e889     	mov	w9, #0x1744             // =5956
    3d98: f8296aec     	str	x12, [x23, x9]
    3d9c: d2800b6c     	mov	x12, #0x5b              // =91
    3da0: f2c00b2c     	movk	x12, #0x59, lsl #32
    3da4: 392ae3ff     	strb	wzr, [sp, #0xab8]
    3da8: 52800be9     	mov	w9, #0x5f               // =95
    3dac: 392b63ff     	strb	wzr, [sp, #0xad8]
    3db0: b91803e9     	str	w9, [sp, #0x1800]
    3db4: 5282e609     	mov	w9, #0x1730             // =5936
    3db8: 8b0902e9     	add	x9, x23, x9
    3dbc: 392c63ff     	strb	wzr, [sp, #0xb18]
    3dc0: 3900413f     	strb	wzr, [x9, #0x10]
    3dc4: d2800b89     	mov	x9, #0x5c               // =92
    3dc8: f2c00ba9     	movk	x9, #0x5d, lsl #32
    3dcc: f82a6ae9     	str	x9, [x23, x10]
    3dd0: 5282dc8a     	mov	w10, #0x16e4            // =5860
    3dd4: f82a6aeb     	str	x11, [x23, x10]
    3dd8: 5282d88b     	mov	w11, #0x16c4            // =5828
    3ddc: f82b6aec     	str	x12, [x23, x11]
    3de0: 5282ce0c     	mov	w12, #0x1670            // =5744
    3de4: f90c17ff     	str	xzr, [sp, #0x1828]
    3de8: 52800b2b     	mov	w11, #0x59              // =89
    3dec: f90c1bff     	str	xzr, [sp, #0x1830]
    3df0: 52800b8a     	mov	w10, #0x5c              // =92
    3df4: b91743eb     	str	w11, [sp, #0x1740]
    3df8: b9179fea     	str	w10, [sp, #0x179c]
    3dfc: 5282da0a     	mov	w10, #0x16d0            // =5840
    3e00: 8b0a02ea     	add	x10, x23, x10
    3e04: b916c3eb     	str	w11, [sp, #0x16c0]
    3e08: 3900415f     	strb	wzr, [x10, #0x10]
    3e0c: 5282d60a     	mov	w10, #0x16b0            // =5808
    3e10: 8b0a02ea     	add	x10, x23, x10
    3e14: 52800c09     	mov	w9, #0x60               // =96
    3e18: f90bf7ff     	str	xzr, [sp, #0x17e8]
    3e1c: b916ffeb     	str	w11, [sp, #0x16fc]
    3e20: 5282be0b     	mov	w11, #0x15f0            // =5616
    3e24: 3900415f     	strb	wzr, [x10, #0x10]
    3e28: 52800b4a     	mov	w10, #0x5a              // =90
    3e2c: b9173fea     	str	w10, [sp, #0x173c]
    3e30: 5282d08a     	mov	w10, #0x1684            // =5764
    3e34: f82a6aed     	str	x13, [x23, x10]
    3e38: d2800acd     	mov	x13, #0x56              // =86
    3e3c: f2c00aed     	movk	x13, #0x57, lsl #32
    3e40: b917a3e9     	str	w9, [sp, #0x17a0]
    3e44: 8b0c02ea     	add	x10, x23, x12
    3e48: 52800b6c     	mov	w12, #0x5b              // =91
    3e4c: b9189fe9     	str	w9, [sp, #0x189c]
    3e50: 52800c89     	mov	w9, #0x64               // =100
    3e54: f90bfbff     	str	xzr, [sp, #0x17f0]
    3e58: b91703ec     	str	w12, [sp, #0x1700]
    3e5c: d2800b2c     	mov	x12, #0x59              // =89
    3e60: f2c00b4c     	movk	x12, #0x5a, lsl #32
    3e64: b9199fe9     	str	w9, [sp, #0x199c]
    3e68: 3900415f     	strb	wzr, [x10, #0x10]
    3e6c: 5282c60a     	mov	w10, #0x1630            // =5680
    3e70: 8b0a02ea     	add	x10, x23, x10
    3e74: f90be7ff     	str	xzr, [sp, #0x17c8]
    3e78: 3900415f     	strb	wzr, [x10, #0x10]
    3e7c: 5282c88a     	mov	w10, #0x1644            // =5700
    3e80: f82a6aec     	str	x12, [x23, x10]
    3e84: d2800b0c     	mov	x12, #0x58              // =88
    3e88: f2c00b8c     	movk	x12, #0x5c, lsl #32
    3e8c: b918a3e9     	str	w9, [sp, #0x18a0]
    3e90: 52800d09     	mov	w9, #0x68               // =104
    3e94: b919a3e9     	str	w9, [sp, #0x19a0]
    3e98: b91a9fe9     	str	w9, [sp, #0x1a9c]
    3e9c: 52800d89     	mov	w9, #0x6c               // =108
    3ea0: 52800b0a     	mov	w10, #0x58              // =88
    3ea4: b91aa3e9     	str	w9, [sp, #0x1aa0]
    3ea8: b916bfea     	str	w10, [sp, #0x16bc]
    3eac: 5282c08a     	mov	w10, #0x1604            // =5636
    3eb0: f82a6aec     	str	x12, [x23, x10]
    3eb4: d2800aec     	mov	x12, #0x57              // =87
    3eb8: f2c00acc     	movk	x12, #0x56, lsl #32
    3ebc: b91b9fe9     	str	w9, [sp, #0x1b9c]
    3ec0: 52800e09     	mov	w9, #0x70               // =112
    3ec4: b91ba3e9     	str	w9, [sp, #0x1ba0]
    3ec8: b91cbfe9     	str	w9, [sp, #0x1cbc]
    3ecc: 52800e29     	mov	w9, #0x71               // =113
    3ed0: 5282bc8a     	mov	w10, #0x15e4            // =5604
    3ed4: b91cc3e9     	str	w9, [sp, #0x1cc0]
    3ed8: f82a6aec     	str	x12, [x23, x10]
    3edc: d2800aec     	mov	x12, #0x57              // =87
    3ee0: f2c00aac     	movk	x12, #0x55, lsl #32
    3ee4: b91cffe9     	str	w9, [sp, #0x1cfc]
    3ee8: 8b0b02ea     	add	x10, x23, x11
    3eec: 5282b88b     	mov	w11, #0x15c4            // =5572
    3ef0: b91d43e9     	str	w9, [sp, #0x1d40]
    3ef4: f82b6aec     	str	x12, [x23, x11]
    3ef8: 5282ae0c     	mov	w12, #0x1570            // =5488
    3efc: 3900415f     	strb	wzr, [x10, #0x10]
    3f00: 5282ba0a     	mov	w10, #0x15d0            // =5584
    3f04: 8b0a02ea     	add	x10, x23, x10
    3f08: 52800aab     	mov	w11, #0x55              // =85
    3f0c: f90bebff     	str	xzr, [sp, #0x17d0]
    3f10: b91643eb     	str	w11, [sp, #0x1640]
    3f14: b915ffeb     	str	w11, [sp, #0x15fc]
    3f18: 3900415f     	strb	wzr, [x10, #0x10]
    3f1c: 5282b60a     	mov	w10, #0x15b0            // =5552
    3f20: 8b0a02ea     	add	x10, x23, x10
    3f24: f90bc7ff     	str	xzr, [sp, #0x1788]
    3f28: 3900415f     	strb	wzr, [x10, #0x10]
    3f2c: 52800aca     	mov	w10, #0x56              // =86
    3f30: b9163fea     	str	w10, [sp, #0x163c]
    3f34: 5282b08a     	mov	w10, #0x1584            // =5508
    3f38: f82a6aed     	str	x13, [x23, x10]
    3f3c: d2800a4d     	mov	x13, #0x52              // =82
    3f40: f2c00a6d     	movk	x13, #0x53, lsl #32
    3f44: f90bcbff     	str	xzr, [sp, #0x1790]
    3f48: 8b0c02ea     	add	x10, x23, x12
    3f4c: 52800aec     	mov	w12, #0x57              // =87
    3f50: b915c3eb     	str	w11, [sp, #0x15c0]
    3f54: 52829e0b     	mov	w11, #0x14f0            // =5360
    3f58: f90bb7ff     	str	xzr, [sp, #0x1768]
    3f5c: 3900415f     	strb	wzr, [x10, #0x10]
    3f60: 5282a60a     	mov	w10, #0x1530            // =5424
    3f64: 8b0a02ea     	add	x10, x23, x10
    3f68: f90bbbff     	str	xzr, [sp, #0x1770]
    3f6c: b91603ec     	str	w12, [sp, #0x1600]
    3f70: d2800aac     	mov	x12, #0x55              // =85
    3f74: f2c00acc     	movk	x12, #0x56, lsl #32
    3f78: f90b97ff     	str	xzr, [sp, #0x1728]
    3f7c: 3900415f     	strb	wzr, [x10, #0x10]
    3f80: 5282a88a     	mov	w10, #0x1544            // =5444
    3f84: f82a6aec     	str	x12, [x23, x10]
    3f88: d2800a8c     	mov	x12, #0x54              // =84
    3f8c: f2c00b0c     	movk	x12, #0x58, lsl #32
    3f90: f90b9bff     	str	xzr, [sp, #0x1730]
    3f94: 52800a8a     	mov	w10, #0x54              // =84
    3f98: f90b77ff     	str	xzr, [sp, #0x16e8]
    3f9c: b915bfea     	str	w10, [sp, #0x15bc]
    3fa0: 5282a08a     	mov	w10, #0x1504            // =5380
    3fa4: f82a6aec     	str	x12, [x23, x10]
    3fa8: d2800a6c     	mov	x12, #0x53              // =83
    3fac: f2c00a4c     	movk	x12, #0x52, lsl #32
    3fb0: f90b7bff     	str	xzr, [sp, #0x16f0]
    3fb4: 52829c8a     	mov	w10, #0x14e4            // =5348
    3fb8: f90b57ff     	str	xzr, [sp, #0x16a8]
    3fbc: f82a6aec     	str	x12, [x23, x10]
    3fc0: d2800a6c     	mov	x12, #0x53              // =83
    3fc4: f2c00a2c     	movk	x12, #0x51, lsl #32
    3fc8: f90b5bff     	str	xzr, [sp, #0x16b0]
    3fcc: 8b0b02ea     	add	x10, x23, x11
    3fd0: 5282988b     	mov	w11, #0x14c4            // =5316
    3fd4: f90b47ff     	str	xzr, [sp, #0x1688]
    3fd8: f82b6aec     	str	x12, [x23, x11]
    3fdc: 52828e0c     	mov	w12, #0x1470            // =5232
    3fe0: 3900415f     	strb	wzr, [x10, #0x10]
    3fe4: 52829a0a     	mov	w10, #0x14d0            // =5328
    3fe8: 8b0a02ea     	add	x10, x23, x10
    3fec: 52800a2b     	mov	w11, #0x51              // =81
    3ff0: f90b4bff     	str	xzr, [sp, #0x1690]
    3ff4: b91543eb     	str	w11, [sp, #0x1540]
    3ff8: b914ffeb     	str	w11, [sp, #0x14fc]
    3ffc: 3900415f     	strb	wzr, [x10, #0x10]
    4000: 5282960a     	mov	w10, #0x14b0            // =5296
    4004: 8b0a02ea     	add	x10, x23, x10
    4008: f90b37ff     	str	xzr, [sp, #0x1668]
    400c: 3900415f     	strb	wzr, [x10, #0x10]
    4010: 52800a4a     	mov	w10, #0x52              // =82
    4014: b9153fea     	str	w10, [sp, #0x153c]
    4018: 5282908a     	mov	w10, #0x1484            // =5252
    401c: f82a6aed     	str	x13, [x23, x10]
    4020: d28009cd     	mov	x13, #0x4e              // =78
    4024: f2c009ed     	movk	x13, #0x4f, lsl #32
    4028: f90b3bff     	str	xzr, [sp, #0x1670]
    402c: 8b0c02ea     	add	x10, x23, x12
    4030: 52800a6c     	mov	w12, #0x53              // =83
    4034: b914c3eb     	str	w11, [sp, #0x14c0]
    4038: 52827e0b     	mov	w11, #0x13f0            // =5104
    403c: f90b17ff     	str	xzr, [sp, #0x1628]
    4040: 3900415f     	strb	wzr, [x10, #0x10]
    4044: 5282860a     	mov	w10, #0x1430            // =5168
    4048: 8b0a02ea     	add	x10, x23, x10
    404c: f90b1bff     	str	xzr, [sp, #0x1630]
    4050: b91503ec     	str	w12, [sp, #0x1500]
    4054: d2800a2c     	mov	x12, #0x51              // =81
    4058: f2c00a4c     	movk	x12, #0x52, lsl #32
    405c: f90af7ff     	str	xzr, [sp, #0x15e8]
    4060: 3900415f     	strb	wzr, [x10, #0x10]
    4064: 5282888a     	mov	w10, #0x1444            // =5188
    4068: f82a6aec     	str	x12, [x23, x10]
    406c: d2800a0c     	mov	x12, #0x50              // =80
    4070: f2c00a8c     	movk	x12, #0x54, lsl #32
    4074: f90afbff     	str	xzr, [sp, #0x15f0]
    4078: 52800a0a     	mov	w10, #0x50              // =80
    407c: f90ad7ff     	str	xzr, [sp, #0x15a8]
    4080: b914bfea     	str	w10, [sp, #0x14bc]
    4084: 5282808a     	mov	w10, #0x1404            // =5124
    4088: f82a6aec     	str	x12, [x23, x10]
    408c: d28009ec     	mov	x12, #0x4f              // =79
    4090: f2c009cc     	movk	x12, #0x4e, lsl #32
    4094: f90adbff     	str	xzr, [sp, #0x15b0]
    4098: 52827c8a     	mov	w10, #0x13e4            // =5092
    409c: f90ac7ff     	str	xzr, [sp, #0x1588]
    40a0: f82a6aec     	str	x12, [x23, x10]
    40a4: d28009ec     	mov	x12, #0x4f              // =79
    40a8: f2c009ac     	movk	x12, #0x4d, lsl #32
    40ac: f90acbff     	str	xzr, [sp, #0x1590]
    40b0: 8b0b02ea     	add	x10, x23, x11
    40b4: 5282788b     	mov	w11, #0x13c4            // =5060
    40b8: f90ab7ff     	str	xzr, [sp, #0x1568]
    40bc: f82b6aec     	str	x12, [x23, x11]
    40c0: 52826e0c     	mov	w12, #0x1370            // =4976
    40c4: 3900415f     	strb	wzr, [x10, #0x10]
    40c8: 52827a0a     	mov	w10, #0x13d0            // =5072
    40cc: 8b0a02ea     	add	x10, x23, x10
    40d0: 528009ab     	mov	w11, #0x4d              // =77
    40d4: f90abbff     	str	xzr, [sp, #0x1570]
    40d8: b91443eb     	str	w11, [sp, #0x1440]
    40dc: b913ffeb     	str	w11, [sp, #0x13fc]
    40e0: 3900415f     	strb	wzr, [x10, #0x10]
    40e4: 5282760a     	mov	w10, #0x13b0            // =5040
    40e8: 8b0a02ea     	add	x10, x23, x10
    40ec: f90a97ff     	str	xzr, [sp, #0x1528]
    40f0: 3900415f     	strb	wzr, [x10, #0x10]
    40f4: 528009ca     	mov	w10, #0x4e              // =78
    40f8: b9143fea     	str	w10, [sp, #0x143c]
    40fc: 5282708a     	mov	w10, #0x1384            // =4996
    4100: f82a6aed     	str	x13, [x23, x10]
    4104: d280098d     	mov	x13, #0x4c              // =76
    4108: f2c00a0d     	movk	x13, #0x50, lsl #32
    410c: f90a9bff     	str	xzr, [sp, #0x1530]
    4110: 8b0c02ea     	add	x10, x23, x12
    4114: 528009ec     	mov	w12, #0x4f              // =79
    4118: b913c3eb     	str	w11, [sp, #0x13c0]
    411c: 5282608b     	mov	w11, #0x1304            // =4868
    4120: 3d852ea0     	str	q0, [x21, #0x14b0]
    4124: b91403ec     	str	w12, [sp, #0x1400]
    4128: d28009ac     	mov	x12, #0x4d              // =77
    412c: 3900415f     	strb	wzr, [x10, #0x10]
    4130: 5282660a     	mov	w10, #0x1330            // =4912
    4134: f2c009cc     	movk	x12, #0x4e, lsl #32
    4138: 8b0a02ea     	add	x10, x23, x10
    413c: f82b6aed     	str	x13, [x23, x11]
    4140: 52825c8b     	mov	w11, #0x12e4            // =4836
    4144: d280096d     	mov	x13, #0x4b              // =75
    4148: 3d854ea0     	str	q0, [x21, #0x1530]
    414c: 3900415f     	strb	wzr, [x10, #0x10]
    4150: 5282688a     	mov	w10, #0x1344            // =4932
    4154: f2c0094d     	movk	x13, #0x4a, lsl #32
    4158: f82a6aec     	str	x12, [x23, x10]
    415c: 52825e0c     	mov	w12, #0x12f0            // =4848
    4160: f82b6aed     	str	x13, [x23, x11]
    4164: d280096d     	mov	x13, #0x4b              // =75
    4168: 5280098a     	mov	w10, #0x4c              // =76
    416c: f2c0092d     	movk	x13, #0x49, lsl #32
    4170: 3d855ea0     	str	q0, [x21, #0x1570]
    4174: b913bfea     	str	w10, [sp, #0x13bc]
    4178: 8b0c02eb     	add	x11, x23, x12
    417c: b912a3ea     	str	w10, [sp, #0x12a0]
    4180: 52823a0a     	mov	w10, #0x11d0            // =4560
    4184: 5282588c     	mov	w12, #0x12c4            // =4804
    4188: 8b0a02ea     	add	x10, x23, x10
    418c: 3d856ea0     	str	q0, [x21, #0x15b0]
    4190: f82c6aed     	str	x13, [x23, x12]
    4194: 52824e0d     	mov	w13, #0x1270            // =4720
    4198: 3900417f     	strb	wzr, [x11, #0x10]
    419c: 52825a0b     	mov	w11, #0x12d0            // =4816
    41a0: 8b0d02ed     	add	x13, x23, x13
    41a4: 8b0b02eb     	add	x11, x23, x11
    41a8: 3900415f     	strb	wzr, [x10, #0x10]
    41ac: 5282360a     	mov	w10, #0x11b0            // =4528
    41b0: 8b0a02ea     	add	x10, x23, x10
    41b4: 390041bf     	strb	wzr, [x13, #0x10]
    41b8: d280090d     	mov	x13, #0x48              // =72
    41bc: 3900417f     	strb	wzr, [x11, #0x10]
    41c0: 5282560b     	mov	w11, #0x12b0            // =4784
    41c4: f2c0092d     	movk	x13, #0x49, lsl #32
    41c8: 8b0b02eb     	add	x11, x23, x11
    41cc: 3900415f     	strb	wzr, [x10, #0x10]
    41d0: 528008ca     	mov	w10, #0x46              // =70
    41d4: 5280092c     	mov	w12, #0x49              // =73
    41d8: b9123fea     	str	w10, [sp, #0x123c]
    41dc: 5282308a     	mov	w10, #0x1184            // =4484
    41e0: 3900417f     	strb	wzr, [x11, #0x10]
    41e4: 5280094b     	mov	w11, #0x4a              // =74
    41e8: b9133feb     	str	w11, [sp, #0x133c]
    41ec: 5282508b     	mov	w11, #0x1284            // =4740
    41f0: f82b6aee     	str	x14, [x23, x11]
    41f4: d280092e     	mov	x14, #0x49              // =73
    41f8: f2c0094e     	movk	x14, #0x4a, lsl #32
    41fc: b912ffec     	str	w12, [sp, #0x12fc]
    4200: 5282488b     	mov	w11, #0x1244            // =4676
    4204: b91343ec     	str	w12, [sp, #0x1340]
    4208: 5282448c     	mov	w12, #0x1224            // =4644
    420c: f82c6aed     	str	x13, [x23, x12]
    4210: d28008ed     	mov	x13, #0x47              // =71
    4214: f82b6aee     	str	x14, [x23, x11]
    4218: d28008ce     	mov	x14, #0x46              // =70
    421c: f2c008cd     	movk	x13, #0x46, lsl #32
    4220: f2c008ee     	movk	x14, #0x47, lsl #32
    4224: f82a6aee     	str	x14, [x23, x10]
    4228: 5282288a     	mov	w10, #0x1144            // =4420
    422c: 5280096b     	mov	w11, #0x4b              // =75
    4230: 3d858ea0     	str	q0, [x21, #0x1630]
    4234: d28008ae     	mov	x14, #0x45              // =69
    4238: b91303eb     	str	w11, [sp, #0x1300]
    423c: 5282460b     	mov	w11, #0x1230            // =4656
    4240: 52823c8c     	mov	w12, #0x11e4            // =4580
    4244: 8b0b02eb     	add	x11, x23, x11
    4248: 3d851ea0     	str	q0, [x21, #0x1470]
    424c: f2c008ce     	movk	x14, #0x46, lsl #32
    4250: f82a6aee     	str	x14, [x23, x10]
    4254: 528008ea     	mov	w10, #0x47              // =71
    4258: f82c6aed     	str	x13, [x23, x12]
    425c: d28008ed     	mov	x13, #0x47              // =71
    4260: f2c008ad     	movk	x13, #0x45, lsl #32
    4264: 3900417f     	strb	wzr, [x11, #0x10]
    4268: 5282420b     	mov	w11, #0x1210            // =4624
    426c: b91203ea     	str	w10, [sp, #0x1200]
    4270: 5282260a     	mov	w10, #0x1130            // =4400
    4274: 8b0b02eb     	add	x11, x23, x11
    4278: 5282388c     	mov	w12, #0x11c4            // =4548
    427c: 8b0a02ea     	add	x10, x23, x10
    4280: 3900417f     	strb	wzr, [x11, #0x10]
    4284: 3900415f     	strb	wzr, [x10, #0x10]
    4288: 5282220a     	mov	w10, #0x1110            // =4368
    428c: 5280090b     	mov	w11, #0x48              // =72
    4290: f82c6aed     	str	x13, [x23, x12]
    4294: 52822e0d     	mov	w13, #0x1170            // =4464
    4298: 8b0a02ea     	add	x10, x23, x10
    429c: 8b0d02ed     	add	x13, x23, x13
    42a0: 3900415f     	strb	wzr, [x10, #0x10]
    42a4: d280086a     	mov	x10, #0x43              // =67
    42a8: f2c0084a     	movk	x10, #0x42, lsl #32
    42ac: b9129feb     	str	w11, [sp, #0x129c]
    42b0: 528008ac     	mov	w12, #0x45              // =69
    42b4: 390041bf     	strb	wzr, [x13, #0x10]
    42b8: d280088d     	mov	x13, #0x44              // =68
    42bc: f2c008ad     	movk	x13, #0x45, lsl #32
    42c0: b911a3eb     	str	w11, [sp, #0x11a0]
    42c4: 5282188b     	mov	w11, #0x10c4            // =4292
    42c8: b91243ec     	str	w12, [sp, #0x1240]
    42cc: b911ffec     	str	w12, [sp, #0x11fc]
    42d0: 5282248c     	mov	w12, #0x1124            // =4388
    42d4: f82c6aed     	str	x13, [x23, x12]
    42d8: d280084d     	mov	x13, #0x42              // =66
    42dc: f2c0086d     	movk	x13, #0x43, lsl #32
    42e0: 3d85aea0     	str	q0, [x21, #0x16b0]
    42e4: 52821c8c     	mov	w12, #0x10e4            // =4324
    42e8: 3d849ea0     	str	q0, [x21, #0x1270]
    42ec: f82c6aea     	str	x10, [x23, x12]
    42f0: 5280088a     	mov	w10, #0x44              // =68
    42f4: b9119fea     	str	w10, [sp, #0x119c]
    42f8: 52821a0a     	mov	w10, #0x10d0            // =4304
    42fc: 8b0a02ea     	add	x10, x23, x10
    4300: 3d85c6a0     	str	q0, [x21, #0x1710]
    4304: 3900415f     	strb	wzr, [x10, #0x10]
    4308: 5282160a     	mov	w10, #0x10b0            // =4272
    430c: d280086c     	mov	x12, #0x43              // =67
    4310: 8b0a02ea     	add	x10, x23, x10
    4314: 3d859ea0     	str	q0, [x21, #0x1670]
    4318: f2c0082c     	movk	x12, #0x41, lsl #32
    431c: 3900415f     	strb	wzr, [x10, #0x10]
    4320: 5280084a     	mov	w10, #0x42              // =66
    4324: f82b6aec     	str	x12, [x23, x11]
    4328: 52820e0c     	mov	w12, #0x1070            // =4208
    432c: b9113fea     	str	w10, [sp, #0x113c]
    4330: 5282108a     	mov	w10, #0x1084            // =4228
    4334: f82a6aed     	str	x13, [x23, x10]
    4338: d280082d     	mov	x13, #0x41              // =65
    433c: 5280082b     	mov	w11, #0x41              // =65
    4340: f2c0084d     	movk	x13, #0x42, lsl #32
    4344: b91143eb     	str	w11, [sp, #0x1140]
    4348: b910ffeb     	str	w11, [sp, #0x10fc]
    434c: b910c3eb     	str	w11, [sp, #0x10c0]
    4350: d28007eb     	mov	x11, #0x3f              // =63
    4354: 8b0c02ea     	add	x10, x23, x12
    4358: 5280086c     	mov	w12, #0x43              // =67
    435c: f2c007cb     	movk	x11, #0x3e, lsl #32
    4360: b91103ec     	str	w12, [sp, #0x1100]
    4364: 5282060c     	mov	w12, #0x1030            // =4144
    4368: 3900415f     	strb	wzr, [x10, #0x10]
    436c: 5282088a     	mov	w10, #0x1044            // =4164
    4370: f82a6aed     	str	x13, [x23, x10]
    4374: 913fc2ed     	add	x13, x23, #0xff0
    4378: 3d85eea0     	str	q0, [x21, #0x17b0]
    437c: 3d8296a0     	str	q0, [x21, #0xa50]
    4380: 8b0c02ea     	add	x10, x23, x12
    4384: 5282008c     	mov	w12, #0x1004            // =4100
    4388: 3d85dea0     	str	q0, [x21, #0x1770]
    438c: 3900415f     	strb	wzr, [x10, #0x10]
    4390: d280080a     	mov	x10, #0x40              // =64
    4394: f2c0088a     	movk	x10, #0x44, lsl #32
    4398: f82c6aea     	str	x10, [x23, x12]
    439c: 913f12ec     	add	x12, x23, #0xfc4
    43a0: 3d827ea0     	str	q0, [x21, #0x9f0]
    43a4: 5280080a     	mov	w10, #0x40              // =64
    43a8: 3d828ea0     	str	q0, [x21, #0xa30]
    43ac: b910bfea     	str	w10, [sp, #0x10bc]
    43b0: d28007ea     	mov	x10, #0x3f              // =63
    43b4: f2c007aa     	movk	x10, #0x3d, lsl #32
    43b8: 3d826ea0     	str	q0, [x21, #0x9b0]
    43bc: f900018a     	str	x10, [x12]
    43c0: 913f92ea     	add	x10, x23, #0xfe4
    43c4: f900014b     	str	x11, [x10]
    43c8: 913e92eb     	add	x11, x23, #0xfa4
    43cc: 3d8266a0     	str	q0, [x21, #0x990]
    43d0: d28007ca     	mov	x10, #0x3e              // =62
    43d4: 3d8276a0     	str	q0, [x21, #0x9d0]
    43d8: f2c007aa     	movk	x10, #0x3d, lsl #32
    43dc: d28007ac     	mov	x12, #0x3d              // =61
    43e0: f90a77ff     	str	xzr, [sp, #0x14e8]
    43e4: f900016a     	str	x10, [x11]
    43e8: d28007ca     	mov	x10, #0x3e              // =62
    43ec: f2c007cc     	movk	x12, #0x3e, lsl #32
    43f0: f2c007ea     	movk	x10, #0x3f, lsl #32
    43f4: 3d8256a0     	str	q0, [x21, #0x950]
    43f8: 913e12eb     	add	x11, x23, #0xf84
    43fc: 3d824ea0     	str	q0, [x21, #0x930]
    4400: f900016a     	str	x10, [x11]
    4404: 913d12ea     	add	x10, x23, #0xf44
    4408: f900014c     	str	x12, [x10]
    440c: d280078c     	mov	x12, #0x3c              // =60
    4410: f2c007ac     	movk	x12, #0x3d, lsl #32
    4414: 3d8246a0     	str	q0, [x21, #0x910]
    4418: 913d92ea     	add	x10, x23, #0xf64
    441c: 3d823ea0     	str	q0, [x21, #0x8f0]
    4420: d28007ab     	mov	x11, #0x3d              // =61
    4424: 3d8236a0     	str	q0, [x21, #0x8d0]
    4428: f2c007eb     	movk	x11, #0x3f, lsl #32
    442c: 3d822ea0     	str	q0, [x21, #0x8b0]
    4430: f900014b     	str	x11, [x10]
    4434: 913c12eb     	add	x11, x23, #0xf04
    4438: 3d821ea0     	str	q0, [x21, #0x870]
    443c: d280078a     	mov	x10, #0x3c              // =60
    4440: 3d8226a0     	str	q0, [x21, #0x890]
    4444: f2c0080a     	movk	x10, #0x40, lsl #32
    4448: 3d8216a0     	str	q0, [x21, #0x850]
    444c: f900016a     	str	x10, [x11]
    4450: 913c92ea     	add	x10, x23, #0xf24
    4454: f900014c     	str	x12, [x10]
    4458: d280076c     	mov	x12, #0x3b              // =59
    445c: f2c0074c     	movk	x12, #0x3a, lsl #32
    4460: 3d820ea0     	str	q0, [x21, #0x830]
    4464: d280076a     	mov	x10, #0x3b              // =59
    4468: 3d8206a0     	str	q0, [x21, #0x810]
    446c: f2c0072a     	movk	x10, #0x39, lsl #32
    4470: 913b12eb     	add	x11, x23, #0xec4
    4474: 3d825ea0     	str	q0, [x21, #0x970]
    4478: f900016a     	str	x10, [x11]
    447c: 913b92ea     	add	x10, x23, #0xee4
    4480: f900014c     	str	x12, [x10]
    4484: d280072c     	mov	x12, #0x39              // =57
    4488: f2c0074c     	movk	x12, #0x3a, lsl #32
    448c: 3d81f6a0     	str	q0, [x21, #0x7d0]
    4490: d280074a     	mov	x10, #0x3a              // =58
    4494: 3d81eea0     	str	q0, [x21, #0x7b0]
    4498: f2c0072a     	movk	x10, #0x39, lsl #32
    449c: 913a92eb     	add	x11, x23, #0xea4
    44a0: 3d81fea0     	str	q0, [x21, #0x7f0]
    44a4: f900016a     	str	x10, [x11]
    44a8: d280074a     	mov	x10, #0x3a              // =58
    44ac: f2c0076a     	movk	x10, #0x3b, lsl #32
    44b0: 3d81d6a0     	str	q0, [x21, #0x750]
    44b4: 913a12eb     	add	x11, x23, #0xe84
    44b8: 3d81dea0     	str	q0, [x21, #0x770]
    44bc: f900016a     	str	x10, [x11]
    44c0: 913912ea     	add	x10, x23, #0xe44
    44c4: f900014c     	str	x12, [x10]
    44c8: d280070c     	mov	x12, #0x38              // =56
    44cc: f2c0072c     	movk	x12, #0x39, lsl #32
    44d0: 3d81cea0     	str	q0, [x21, #0x730]
    44d4: 913992ea     	add	x10, x23, #0xe64
    44d8: 3d81c6a0     	str	q0, [x21, #0x710]
    44dc: d280072b     	mov	x11, #0x39              // =57
    44e0: 3d81bea0     	str	q0, [x21, #0x6f0]
    44e4: f2c0076b     	movk	x11, #0x3b, lsl #32
    44e8: 3d81b6a0     	str	q0, [x21, #0x6d0]
    44ec: f900014b     	str	x11, [x10]
    44f0: 913812eb     	add	x11, x23, #0xe04
    44f4: 3d81a6a0     	str	q0, [x21, #0x690]
    44f8: d280070a     	mov	x10, #0x38              // =56
    44fc: 3d81aea0     	str	q0, [x21, #0x6b0]
    4500: f2c0078a     	movk	x10, #0x3c, lsl #32
    4504: 3d819ea0     	str	q0, [x21, #0x670]
    4508: f900016a     	str	x10, [x11]
    450c: 913892ea     	add	x10, x23, #0xe24
    4510: f900014c     	str	x12, [x10]
    4514: d28006ec     	mov	x12, #0x37              // =55
    4518: f2c006cc     	movk	x12, #0x36, lsl #32
    451c: 3d8196a0     	str	q0, [x21, #0x650]
    4520: d28006ea     	mov	x10, #0x37              // =55
    4524: 3d818ea0     	str	q0, [x21, #0x630]
    4528: f2c006aa     	movk	x10, #0x35, lsl #32
    452c: 913712eb     	add	x11, x23, #0xdc4
    4530: 3d81e6a0     	str	q0, [x21, #0x790]
    4534: f900016a     	str	x10, [x11]
    4538: 913792ea     	add	x10, x23, #0xde4
    453c: f900014c     	str	x12, [x10]
    4540: d28006ac     	mov	x12, #0x35              // =53
    4544: f2c006cc     	movk	x12, #0x36, lsl #32
    4548: 3d817ea0     	str	q0, [x21, #0x5f0]
    454c: d28006ca     	mov	x10, #0x36              // =54
    4550: 3d8176a0     	str	q0, [x21, #0x5d0]
    4554: f2c006aa     	movk	x10, #0x35, lsl #32
    4558: 913692eb     	add	x11, x23, #0xda4
    455c: 3d8186a0     	str	q0, [x21, #0x610]
    4560: f900016a     	str	x10, [x11]
    4564: d28006ca     	mov	x10, #0x36              // =54
    4568: f2c006ea     	movk	x10, #0x37, lsl #32
    456c: 3d815ea0     	str	q0, [x21, #0x570]
    4570: 913612eb     	add	x11, x23, #0xd84
    4574: 3d8166a0     	str	q0, [x21, #0x590]
    4578: f900016a     	str	x10, [x11]
    457c: 913512ea     	add	x10, x23, #0xd44
    4580: f900014c     	str	x12, [x10]
    4584: d280068c     	mov	x12, #0x34              // =52
    4588: f2c006ac     	movk	x12, #0x35, lsl #32
    458c: 3d8156a0     	str	q0, [x21, #0x550]
    4590: 913592ea     	add	x10, x23, #0xd64
    4594: 3d814ea0     	str	q0, [x21, #0x530]
    4598: d28006ab     	mov	x11, #0x35              // =53
    459c: 3d8146a0     	str	q0, [x21, #0x510]
    45a0: f2c006eb     	movk	x11, #0x37, lsl #32
    45a4: 3d813ea0     	str	q0, [x21, #0x4f0]
    45a8: f900014b     	str	x11, [x10]
    45ac: 913412eb     	add	x11, x23, #0xd04
    45b0: 3d812ea0     	str	q0, [x21, #0x4b0]
    45b4: d280068a     	mov	x10, #0x34              // =52
    45b8: 3d8136a0     	str	q0, [x21, #0x4d0]
    45bc: f2c0070a     	movk	x10, #0x38, lsl #32
    45c0: 3d8126a0     	str	q0, [x21, #0x490]
    45c4: f900016a     	str	x10, [x11]
    45c8: 913492ea     	add	x10, x23, #0xd24
    45cc: f900014c     	str	x12, [x10]
    45d0: d280066c     	mov	x12, #0x33              // =51
    45d4: f2c0064c     	movk	x12, #0x32, lsl #32
    45d8: 3d811ea0     	str	q0, [x21, #0x470]
    45dc: d280066a     	mov	x10, #0x33              // =51
    45e0: 3d8116a0     	str	q0, [x21, #0x450]
    45e4: f2c0062a     	movk	x10, #0x31, lsl #32
    45e8: 913312eb     	add	x11, x23, #0xcc4
    45ec: 3d816ea0     	str	q0, [x21, #0x5b0]
    45f0: f900016a     	str	x10, [x11]
    45f4: 913392ea     	add	x10, x23, #0xce4
    45f8: f900014c     	str	x12, [x10]
    45fc: d280062c     	mov	x12, #0x31              // =49
    4600: f2c0064c     	movk	x12, #0x32, lsl #32
    4604: 3d8106a0     	str	q0, [x21, #0x410]
    4608: d280064a     	mov	x10, #0x32              // =50
    460c: 3d80fea0     	str	q0, [x21, #0x3f0]
    4610: f2c0062a     	movk	x10, #0x31, lsl #32
    4614: 913292eb     	add	x11, x23, #0xca4
    4618: 3d810ea0     	str	q0, [x21, #0x430]
    461c: f900016a     	str	x10, [x11]
    4620: d280064a     	mov	x10, #0x32              // =50
    4624: f2c0066a     	movk	x10, #0x33, lsl #32
    4628: 3d80e6a0     	str	q0, [x21, #0x390]
    462c: 913212eb     	add	x11, x23, #0xc84
    4630: 3d80eea0     	str	q0, [x21, #0x3b0]
    4634: f900016a     	str	x10, [x11]
    4638: 913112ea     	add	x10, x23, #0xc44
    463c: f900014c     	str	x12, [x10]
    4640: d28005cc     	mov	x12, #0x2e              // =46
    4644: f2c005ec     	movk	x12, #0x2f, lsl #32
    4648: 3d80dea0     	str	q0, [x21, #0x370]
    464c: 913192ea     	add	x10, x23, #0xc64
    4650: 3d80d6a0     	str	q0, [x21, #0x350]
    4654: d280062b     	mov	x11, #0x31              // =49
    4658: 3d80cea0     	str	q0, [x21, #0x330]
    465c: f2c0066b     	movk	x11, #0x33, lsl #32
    4660: 3d80c6a0     	str	q0, [x21, #0x310]
    4664: f900014b     	str	x11, [x10]
    4668: 913092eb     	add	x11, x23, #0xc24
    466c: 3d80b6a0     	str	q0, [x21, #0x2d0]
    4670: d280060a     	mov	x10, #0x30              // =48
    4674: 3d80bea0     	str	q0, [x21, #0x2f0]
    4678: f2c0062a     	movk	x10, #0x31, lsl #32
    467c: 3d80aea0     	str	q0, [x21, #0x2b0]
    4680: f900016a     	str	x10, [x11]
    4684: d280060a     	mov	x10, #0x30              // =48
    4688: f2c0068a     	movk	x10, #0x34, lsl #32
    468c: 3d809ea0     	str	q0, [x21, #0x270]
    4690: 913012eb     	add	x11, x23, #0xc04
    4694: 3d80a6a0     	str	q0, [x21, #0x290]
    4698: f900016a     	str	x10, [x11]
    469c: d28005ea     	mov	x10, #0x2f              // =47
    46a0: f2c005ca     	movk	x10, #0x2e, lsl #32
    46a4: 3d808ea0     	str	q0, [x21, #0x230]
    46a8: 912f92eb     	add	x11, x23, #0xbe4
    46ac: 3d8096a0     	str	q0, [x21, #0x250]
    46b0: f900016a     	str	x10, [x11]
    46b4: d28005ea     	mov	x10, #0x2f              // =47
    46b8: f2c005aa     	movk	x10, #0x2d, lsl #32
    46bc: 3d807ea0     	str	q0, [x21, #0x1f0]
    46c0: 912f12eb     	add	x11, x23, #0xbc4
    46c4: 3d8086a0     	str	q0, [x21, #0x210]
    46c8: f900016a     	str	x10, [x11]
    46cc: 912e12ea     	add	x10, x23, #0xb84
    46d0: f900014c     	str	x12, [x10]
    46d4: d280058c     	mov	x12, #0x2c              // =44
    46d8: f2c005ac     	movk	x12, #0x2d, lsl #32
    46dc: 3d8076a0     	str	q0, [x21, #0x1d0]
    46e0: 912e92ea     	add	x10, x23, #0xba4
    46e4: 3d806ea0     	str	q0, [x21, #0x1b0]
    46e8: d28005cb     	mov	x11, #0x2e              // =46
    46ec: 3d8066a0     	str	q0, [x21, #0x190]
    46f0: f2c005ab     	movk	x11, #0x2d, lsl #32
    46f4: 3d805ea0     	str	q0, [x21, #0x170]
    46f8: f900014b     	str	x11, [x10]
    46fc: 912d92eb     	add	x11, x23, #0xb64
    4700: 3d804ea0     	str	q0, [x21, #0x130]
    4704: d28005aa     	mov	x10, #0x2d              // =45
    4708: 3d8056a0     	str	q0, [x21, #0x150]
    470c: f2c005ea     	movk	x10, #0x2f, lsl #32
    4710: 3d8046a0     	str	q0, [x21, #0x110]
    4714: f900016a     	str	x10, [x11]
    4718: 912c92ea     	add	x10, x23, #0xb24
    471c: f900014c     	str	x12, [x10]
    4720: d280056c     	mov	x12, #0x2b              // =43
    4724: f2c0054c     	movk	x12, #0x2a, lsl #32
    4728: 3d803ea0     	str	q0, [x21, #0xf0]
    472c: 912d12ea     	add	x10, x23, #0xb44
    4730: 3d8036a0     	str	q0, [x21, #0xd0]
    4734: d28005ab     	mov	x11, #0x2d              // =45
    4738: 3d802ea0     	str	q0, [x21, #0xb0]
    473c: f2c005cb     	movk	x11, #0x2e, lsl #32
    4740: 3d8026a0     	str	q0, [x21, #0x90]
    4744: f900014b     	str	x11, [x10]
    4748: d280054b     	mov	x11, #0x2a              // =42
    474c: f2c0052b     	movk	x11, #0x29, lsl #32
    4750: 3d8016a0     	str	q0, [x21, #0x50]
    4754: 912a92ea     	add	x10, x23, #0xaa4
    4758: 3d801ea0     	str	q0, [x21, #0x70]
    475c: f900014b     	str	x11, [x10]
    4760: d280058b     	mov	x11, #0x2c              // =44
    4764: 912b92ea     	add	x10, x23, #0xae4
    4768: f2c0060b     	movk	x11, #0x30, lsl #32
    476c: 3d80f6a0     	str	q0, [x21, #0x3d0]
    4770: f900014c     	str	x12, [x10]
    4774: 912c12ea     	add	x10, x23, #0xb04
    4778: 912a12ec     	add	x12, x23, #0xa84
    477c: f900014b     	str	x11, [x10]
    4780: d280056a     	mov	x10, #0x2b              // =43
    4784: 912b12eb     	add	x11, x23, #0xac4
    4788: f2c0052a     	movk	x10, #0x29, lsl #32
    478c: 3d800ea0     	str	q0, [x21, #0x30]
    4790: f900016a     	str	x10, [x11]
    4794: d280054a     	mov	x10, #0x2a              // =42
    4798: 5282fa0b     	mov	w11, #0x17d0            // =6096
    479c: f2c0056a     	movk	x10, #0x2b, lsl #32
    47a0: f90a7bff     	str	xzr, [sp, #0x14f0]
    47a4: f900018a     	str	x10, [x12]
    47a8: 8b0b02ea     	add	x10, x23, x11
    47ac: d2800beb     	mov	x11, #0x5f              // =95
    47b0: 3900415f     	strb	wzr, [x10, #0x10]
    47b4: 5282fc8a     	mov	w10, #0x17e4            // =6116
    47b8: f2c00bcb     	movk	x11, #0x5e, lsl #32
    47bc: f82a6aeb     	str	x11, [x23, x10]
    47c0: 5283020a     	mov	w10, #0x1810            // =6160
    47c4: 5283060b     	mov	w11, #0x1830            // =6192
    47c8: 8b0a02ea     	add	x10, x23, x10
    47cc: 8b0b02eb     	add	x11, x23, x11
    47d0: d2800c0c     	mov	x12, #0x60              // =96
    47d4: 3900415f     	strb	wzr, [x10, #0x10]
    47d8: 5283048a     	mov	w10, #0x1824            // =6180
    47dc: f2c00c2c     	movk	x12, #0x61, lsl #32
    47e0: 3900417f     	strb	wzr, [x11, #0x10]
    47e4: d2800c2b     	mov	x11, #0x61              // =97
    47e8: f82a6aec     	str	x12, [x23, x10]
    47ec: 5283088a     	mov	w10, #0x1844            // =6212
    47f0: f2c00c4b     	movk	x11, #0x62, lsl #32
    47f4: f82a6aeb     	str	x11, [x23, x10]
    47f8: 52830e0b     	mov	w11, #0x1870            // =6256
    47fc: 52800c6c     	mov	w12, #0x63              // =99
    4800: 8b0b02eb     	add	x11, x23, x11
    4804: b91903ec     	str	w12, [sp, #0x1900]
    4808: d2800c4c     	mov	x12, #0x62              // =98
    480c: 3900417f     	strb	wzr, [x11, #0x10]
    4810: 5283108b     	mov	w11, #0x1884            // =6276
    4814: f2c00c6c     	movk	x12, #0x63, lsl #32
    4818: f82b6aec     	str	x12, [x23, x11]
    481c: 52800c4b     	mov	w11, #0x62              // =98
    4820: 52800c2a     	mov	w10, #0x61              // =97
    4824: b9193feb     	str	w11, [sp, #0x193c]
    4828: 5283160b     	mov	w11, #0x18b0            // =6320
    482c: d2800c6c     	mov	x12, #0x63              // =99
    4830: b918ffea     	str	w10, [sp, #0x18fc]
    4834: f2c00c2c     	movk	x12, #0x61, lsl #32
    4838: b91943ea     	str	w10, [sp, #0x1940]
    483c: 8b0b02ea     	add	x10, x23, x11
    4840: 52831a0b     	mov	w11, #0x18d0            // =6352
    4844: 8b0b02eb     	add	x11, x23, x11
    4848: 3900415f     	strb	wzr, [x10, #0x10]
    484c: 5283188a     	mov	w10, #0x18c4            // =6340
    4850: 3900417f     	strb	wzr, [x11, #0x10]
    4854: d2800c6b     	mov	x11, #0x63              // =99
    4858: f82a6aec     	str	x12, [x23, x10]
    485c: 52831c8a     	mov	w10, #0x18e4            // =6372
    4860: f2c00c4b     	movk	x11, #0x62, lsl #32
    4864: f82a6aeb     	str	x11, [x23, x10]
    4868: 5283220a     	mov	w10, #0x1910            // =6416
    486c: 5283260b     	mov	w11, #0x1930            // =6448
    4870: 8b0a02ea     	add	x10, x23, x10
    4874: 8b0b02eb     	add	x11, x23, x11
    4878: d2800c8c     	mov	x12, #0x64              // =100
    487c: 3900415f     	strb	wzr, [x10, #0x10]
    4880: 5283248a     	mov	w10, #0x1924            // =6436
    4884: f2c00cac     	movk	x12, #0x65, lsl #32
    4888: 3900417f     	strb	wzr, [x11, #0x10]
    488c: d2800cab     	mov	x11, #0x65              // =101
    4890: f82a6aec     	str	x12, [x23, x10]
    4894: 5283288a     	mov	w10, #0x1944            // =6468
    4898: f2c00ccb     	movk	x11, #0x66, lsl #32
    489c: f82a6aeb     	str	x11, [x23, x10]
    48a0: 52832e0b     	mov	w11, #0x1970            // =6512
    48a4: 52800cec     	mov	w12, #0x67              // =103
    48a8: 8b0b02eb     	add	x11, x23, x11
    48ac: b91a03ec     	str	w12, [sp, #0x1a00]
    48b0: d2800ccc     	mov	x12, #0x66              // =102
    48b4: 3900417f     	strb	wzr, [x11, #0x10]
    48b8: 5283308b     	mov	w11, #0x1984            // =6532
    48bc: f2c00cec     	movk	x12, #0x67, lsl #32
    48c0: f82b6aec     	str	x12, [x23, x11]
    48c4: 52800ccb     	mov	w11, #0x66              // =102
    48c8: 52800caa     	mov	w10, #0x65              // =101
    48cc: b91a3feb     	str	w11, [sp, #0x1a3c]
    48d0: 5283360b     	mov	w11, #0x19b0            // =6576
    48d4: d2800cec     	mov	x12, #0x67              // =103
    48d8: b919ffea     	str	w10, [sp, #0x19fc]
    48dc: f2c00cac     	movk	x12, #0x65, lsl #32
    48e0: b91a43ea     	str	w10, [sp, #0x1a40]
    48e4: 8b0b02ea     	add	x10, x23, x11
    48e8: 52833a0b     	mov	w11, #0x19d0            // =6608
    48ec: 8b0b02eb     	add	x11, x23, x11
    48f0: 3900415f     	strb	wzr, [x10, #0x10]
    48f4: 5283388a     	mov	w10, #0x19c4            // =6596
    48f8: 3900417f     	strb	wzr, [x11, #0x10]
    48fc: d2800ceb     	mov	x11, #0x67              // =103
    4900: f82a6aec     	str	x12, [x23, x10]
    4904: 52833c8a     	mov	w10, #0x19e4            // =6628
    4908: f2c00ccb     	movk	x11, #0x66, lsl #32
    490c: f82a6aeb     	str	x11, [x23, x10]
    4910: 5283420a     	mov	w10, #0x1a10            // =6672
    4914: 5283460b     	mov	w11, #0x1a30            // =6704
    4918: 8b0a02ea     	add	x10, x23, x10
    491c: 8b0b02eb     	add	x11, x23, x11
    4920: d2800d0c     	mov	x12, #0x68              // =104
    4924: 3900415f     	strb	wzr, [x10, #0x10]
    4928: 5283448a     	mov	w10, #0x1a24            // =6692
    492c: f2c00d2c     	movk	x12, #0x69, lsl #32
    4930: 3900417f     	strb	wzr, [x11, #0x10]
    4934: d2800d2b     	mov	x11, #0x69              // =105
    4938: f82a6aec     	str	x12, [x23, x10]
    493c: 5283488a     	mov	w10, #0x1a44            // =6724
    4940: f2c00d4b     	movk	x11, #0x6a, lsl #32
    4944: f82a6aeb     	str	x11, [x23, x10]
    4948: 52834e0b     	mov	w11, #0x1a70            // =6768
    494c: 52800d6c     	mov	w12, #0x6b              // =107
    4950: 8b0b02eb     	add	x11, x23, x11
    4954: b91b03ec     	str	w12, [sp, #0x1b00]
    4958: d2800d4c     	mov	x12, #0x6a              // =106
    495c: 3900417f     	strb	wzr, [x11, #0x10]
    4960: 5283508b     	mov	w11, #0x1a84            // =6788
    4964: f2c00d6c     	movk	x12, #0x6b, lsl #32
    4968: f82b6aec     	str	x12, [x23, x11]
    496c: 52800d4b     	mov	w11, #0x6a              // =106
    4970: 52800d2a     	mov	w10, #0x69              // =105
    4974: b91b3feb     	str	w11, [sp, #0x1b3c]
    4978: 5283560b     	mov	w11, #0x1ab0            // =6832
    497c: d2800d6c     	mov	x12, #0x6b              // =107
    4980: b91affea     	str	w10, [sp, #0x1afc]
    4984: f2c00d2c     	movk	x12, #0x69, lsl #32
    4988: b91b43ea     	str	w10, [sp, #0x1b40]
    498c: 8b0b02ea     	add	x10, x23, x11
    4990: 52835a0b     	mov	w11, #0x1ad0            // =6864
    4994: 8b0b02eb     	add	x11, x23, x11
    4998: 3900415f     	strb	wzr, [x10, #0x10]
    499c: 5283588a     	mov	w10, #0x1ac4            // =6852
    49a0: 3900417f     	strb	wzr, [x11, #0x10]
    49a4: d2800d6b     	mov	x11, #0x6b              // =107
    49a8: f82a6aec     	str	x12, [x23, x10]
    49ac: 52835c8a     	mov	w10, #0x1ae4            // =6884
    49b0: f2c00d4b     	movk	x11, #0x6a, lsl #32
    49b4: f82a6aeb     	str	x11, [x23, x10]
    49b8: 5283620a     	mov	w10, #0x1b10            // =6928
    49bc: 5283660b     	mov	w11, #0x1b30            // =6960
    49c0: 8b0a02ea     	add	x10, x23, x10
    49c4: 8b0b02eb     	add	x11, x23, x11
    49c8: d2800d8c     	mov	x12, #0x6c              // =108
    49cc: 3900415f     	strb	wzr, [x10, #0x10]
    49d0: 5283648a     	mov	w10, #0x1b24            // =6948
    49d4: f2c00dac     	movk	x12, #0x6d, lsl #32
    49d8: 3900417f     	strb	wzr, [x11, #0x10]
    49dc: d2800dab     	mov	x11, #0x6d              // =109
    49e0: f82a6aec     	str	x12, [x23, x10]
    49e4: 5283688a     	mov	w10, #0x1b44            // =6980
    49e8: f2c00dcb     	movk	x11, #0x6e, lsl #32
    49ec: f82a6aeb     	str	x11, [x23, x10]
    49f0: 52836e0b     	mov	w11, #0x1b70            // =7024
    49f4: 52800dec     	mov	w12, #0x6f              // =111
    49f8: 8b0b02eb     	add	x11, x23, x11
    49fc: b91c03ec     	str	w12, [sp, #0x1c00]
    4a00: d2800dcc     	mov	x12, #0x6e              // =110
    4a04: 3900417f     	strb	wzr, [x11, #0x10]
    4a08: 5283708b     	mov	w11, #0x1b84            // =7044
    4a0c: f2c00dec     	movk	x12, #0x6f, lsl #32
    4a10: f82b6aec     	str	x12, [x23, x11]
    4a14: 52800dcb     	mov	w11, #0x6e              // =110
    4a18: 52800daa     	mov	w10, #0x6d              // =109
    4a1c: b91c3feb     	str	w11, [sp, #0x1c3c]
    4a20: 5283760b     	mov	w11, #0x1bb0            // =7088
    4a24: d2800dec     	mov	x12, #0x6f              // =111
    4a28: b91bffea     	str	w10, [sp, #0x1bfc]
    4a2c: f2c00dac     	movk	x12, #0x6d, lsl #32
    4a30: b91c43ea     	str	w10, [sp, #0x1c40]
    4a34: 8b0b02ea     	add	x10, x23, x11
    4a38: 52837a0b     	mov	w11, #0x1bd0            // =7120
    4a3c: 8b0b02eb     	add	x11, x23, x11
    4a40: 3900415f     	strb	wzr, [x10, #0x10]
    4a44: 5283788a     	mov	w10, #0x1bc4            // =7108
    4a48: 3900417f     	strb	wzr, [x11, #0x10]
    4a4c: 52837e0b     	mov	w11, #0x1bf0            // =7152
    4a50: f82a6aec     	str	x12, [x23, x10]
    4a54: 52837c8a     	mov	w10, #0x1be4            // =7140
    4a58: 8b0b02eb     	add	x11, x23, x11
    4a5c: d2800dec     	mov	x12, #0x6f              // =111
    4a60: 3900417f     	strb	wzr, [x11, #0x10]
    4a64: d2800e0b     	mov	x11, #0x70              // =112
    4a68: f2c00dcc     	movk	x12, #0x6e, lsl #32
    4a6c: f82a6aec     	str	x12, [x23, x10]
    4a70: 5283808a     	mov	w10, #0x1c04            // =7172
    4a74: f2c00e8b     	movk	x11, #0x74, lsl #32
    4a78: f82a6aeb     	str	x11, [x23, x10]
    4a7c: 5283860a     	mov	w10, #0x1c30            // =7216
    4a80: 8b0a02ea     	add	x10, x23, x10
    4a84: d2800e2b     	mov	x11, #0x71              // =113
    4a88: 3d850ea0     	str	q0, [x21, #0x1430]
    4a8c: 3900415f     	strb	wzr, [x10, #0x10]
    4a90: 5283888a     	mov	w10, #0x1c44            // =7236
    4a94: f2c00e4b     	movk	x11, #0x72, lsl #32
    4a98: f82a6aeb     	str	x11, [x23, x10]
    4a9c: 52838e0a     	mov	w10, #0x1c70            // =7280
    4aa0: 52800e6b     	mov	w11, #0x73              // =115
    4aa4: 8b0a02ea     	add	x10, x23, x10
    4aa8: b91d03eb     	str	w11, [sp, #0x1d00]
    4aac: d2800e4b     	mov	x11, #0x72              // =114
    4ab0: 3900415f     	strb	wzr, [x10, #0x10]
    4ab4: 5283908a     	mov	w10, #0x1c84            // =7300
    4ab8: f2c00e6b     	movk	x11, #0x73, lsl #32
    4abc: f82a6aeb     	str	x11, [x23, x10]
    4ac0: 52800e4a     	mov	w10, #0x72              // =114
    4ac4: d2800e6b     	mov	x11, #0x73              // =115
    4ac8: b91d3fea     	str	w10, [sp, #0x1d3c]
    4acc: 5283960a     	mov	w10, #0x1cb0            // =7344
    4ad0: f2c00e2b     	movk	x11, #0x71, lsl #32
    4ad4: 8b0a02e9     	add	x9, x23, x10
    4ad8: 52839a0a     	mov	w10, #0x1cd0            // =7376
    4adc: f90a57ff     	str	xzr, [sp, #0x14a8]
    4ae0: 8b0a02ea     	add	x10, x23, x10
    4ae4: 3900413f     	strb	wzr, [x9, #0x10]
    4ae8: 52839889     	mov	w9, #0x1cc4             // =7364
    4aec: 3900415f     	strb	wzr, [x10, #0x10]
    4af0: 52839e0a     	mov	w10, #0x1cf0            // =7408
    4af4: 8b0a02ea     	add	x10, x23, x10
    4af8: f8296aeb     	str	x11, [x23, x9]
    4afc: 52839c89     	mov	w9, #0x1ce4             // =7396
    4b00: d2800e6b     	mov	x11, #0x73              // =115
    4b04: 3900415f     	strb	wzr, [x10, #0x10]
    4b08: d2800e8a     	mov	x10, #0x74              // =116
    4b0c: f2c00e4b     	movk	x11, #0x72, lsl #32
    4b10: f8296aeb     	str	x11, [x23, x9]
    4b14: 5283a089     	mov	w9, #0x1d04             // =7428
    4b18: f2c00f0a     	movk	x10, #0x78, lsl #32
    4b1c: f8296aea     	str	x10, [x23, x9]
    4b20: d2800eab     	mov	x11, #0x75              // =117
    4b24: 5283a60a     	mov	w10, #0x1d30            // =7472
    4b28: f2c00ecb     	movk	x11, #0x76, lsl #32
    4b2c: 52800e89     	mov	w9, #0x74               // =116
    4b30: 8b0a02ea     	add	x10, x23, x10
    4b34: b91dbfe9     	str	w9, [sp, #0x1dbc]
    4b38: 52800ea9     	mov	w9, #0x75               // =117
    4b3c: 3900415f     	strb	wzr, [x10, #0x10]
    4b40: 5283a88a     	mov	w10, #0x1d44            // =7492
    4b44: f82a6aeb     	str	x11, [x23, x10]
    4b48: 5283ae0a     	mov	w10, #0x1d70            // =7536
    4b4c: 52800eeb     	mov	w11, #0x77              // =119
    4b50: 8b0a02ea     	add	x10, x23, x10
    4b54: b91e03eb     	str	w11, [sp, #0x1e00]
    4b58: d2800ecb     	mov	x11, #0x76              // =118
    4b5c: 3900415f     	strb	wzr, [x10, #0x10]
    4b60: 5283b08a     	mov	w10, #0x1d84            // =7556
    4b64: f2c00eeb     	movk	x11, #0x77, lsl #32
    4b68: f82a6aeb     	str	x11, [x23, x10]
    4b6c: 52800eca     	mov	w10, #0x76              // =118
    4b70: d2800eeb     	mov	x11, #0x77              // =119
    4b74: b91e3fea     	str	w10, [sp, #0x1e3c]
    4b78: 5283b60a     	mov	w10, #0x1db0            // =7600
    4b7c: f2c00eab     	movk	x11, #0x75, lsl #32
    4b80: b91dc3e9     	str	w9, [sp, #0x1dc0]
    4b84: b91dffe9     	str	w9, [sp, #0x1dfc]
    4b88: b91e43e9     	str	w9, [sp, #0x1e40]
    4b8c: 8b0a02e9     	add	x9, x23, x10
    4b90: 5283ba0a     	mov	w10, #0x1dd0            // =7632
    4b94: 3900413f     	strb	wzr, [x9, #0x10]
    4b98: 5283b889     	mov	w9, #0x1dc4             // =7620
    4b9c: 8b0a02ea     	add	x10, x23, x10
    4ba0: f8296aeb     	str	x11, [x23, x9]
    4ba4: 5283bc89     	mov	w9, #0x1de4             // =7652
    4ba8: d2800f0b     	mov	x11, #0x78              // =120
    4bac: 3900415f     	strb	wzr, [x10, #0x10]
    4bb0: d2800eea     	mov	x10, #0x77              // =119
    4bb4: f2c00f2b     	movk	x11, #0x79, lsl #32
    4bb8: f2c00eca     	movk	x10, #0x76, lsl #32
    4bbc: f8296aea     	str	x10, [x23, x9]
    4bc0: 52800f09     	mov	w9, #0x78               // =120
    4bc4: 5283c20a     	mov	w10, #0x1e10            // =7696
    4bc8: b91e9fe9     	str	w9, [sp, #0x1e9c]
    4bcc: 52800f89     	mov	w9, #0x7c               // =124
    4bd0: b91ea3e9     	str	w9, [sp, #0x1ea0]
    4bd4: 8b0a02e9     	add	x9, x23, x10
    4bd8: 5283c60a     	mov	w10, #0x1e30            // =7728
    4bdc: 8b0a02ea     	add	x10, x23, x10
    4be0: 3900413f     	strb	wzr, [x9, #0x10]
    4be4: 5283c489     	mov	w9, #0x1e24             // =7716
    4be8: 3900415f     	strb	wzr, [x10, #0x10]
    4bec: d2800f2a     	mov	x10, #0x79              // =121
    4bf0: f8296aeb     	str	x11, [x23, x9]
    4bf4: 5283c889     	mov	w9, #0x1e44             // =7748
    4bf8: f2c00f4a     	movk	x10, #0x7a, lsl #32
    4bfc: f8296aea     	str	x10, [x23, x9]
    4c00: 5283ce0a     	mov	w10, #0x1e70            // =7792
    4c04: 52800f29     	mov	w9, #0x79               // =121
    4c08: 52800f6b     	mov	w11, #0x7b              // =123
    4c0c: 8b0a02ea     	add	x10, x23, x10
    4c10: b91effe9     	str	w9, [sp, #0x1efc]
    4c14: b91f03eb     	str	w11, [sp, #0x1f00]
    4c18: d2800f4b     	mov	x11, #0x7a              // =122
    4c1c: 3900415f     	strb	wzr, [x10, #0x10]
    4c20: 5283d08a     	mov	w10, #0x1e84            // =7812
    4c24: f2c00f6b     	movk	x11, #0x7b, lsl #32
    4c28: b91f43e9     	str	w9, [sp, #0x1f40]
    4c2c: 5283da09     	mov	w9, #0x1ed0             // =7888
    4c30: f82a6aeb     	str	x11, [x23, x10]
    4c34: 8b0902e9     	add	x9, x23, x9
    4c38: d2800f6a     	mov	x10, #0x7b              // =123
    4c3c: f2c00f2a     	movk	x10, #0x79, lsl #32
    4c40: f8286aea     	str	x10, [x23, x8]
    4c44: 5283dc88     	mov	w8, #0x1ee4             // =7908
    4c48: 3900413f     	strb	wzr, [x9, #0x10]
    4c4c: d2800f69     	mov	x9, #0x7b               // =123
    4c50: 5283e20a     	mov	w10, #0x1f10            // =7952
    4c54: f2c00f49     	movk	x9, #0x7a, lsl #32
    4c58: f8286ae9     	str	x9, [x23, x8]
    4c5c: 5283e088     	mov	w8, #0x1f04             // =7940
    4c60: f8286aff     	str	xzr, [x23, x8]
    4c64: 5283e488     	mov	w8, #0x1f24             // =7972
    4c68: 5283de09     	mov	w9, #0x1ef0             // =7920
    4c6c: f8286aff     	str	xzr, [x23, x8]
    4c70: 5283e888     	mov	w8, #0x1f44             // =8004
    4c74: 8b0902e9     	add	x9, x23, x9
    4c78: f8286aff     	str	xzr, [x23, x8]
    4c7c: 5283ec88     	mov	w8, #0x1f64             // =8036
    4c80: 52801f0b     	mov	w11, #0xf8              // =248
    4c84: f8286aff     	str	xzr, [x23, x8]
    4c88: 5283f088     	mov	w8, #0x1f84             // =8068
    4c8c: f8286aff     	str	xzr, [x23, x8]
    4c90: 5283f488     	mov	w8, #0x1fa4             // =8100
    4c94: f8286aff     	str	xzr, [x23, x8]
    4c98: 5283f888     	mov	w8, #0x1fc4             // =8132
    4c9c: f8286aff     	str	xzr, [x23, x8]
    4ca0: 5283fc88     	mov	w8, #0x1fe4             // =8164
    4ca4: f8286aff     	str	xzr, [x23, x8]
    4ca8: 8b0a02e8     	add	x8, x23, x10
    4cac: 2a1f03ea     	mov	w10, wzr
    4cb0: 3900413f     	strb	wzr, [x9, #0x10]
    4cb4: 5283e609     	mov	w9, #0x1f30             // =7984
    4cb8: 8b0902e9     	add	x9, x23, x9
    4cbc: 3900411f     	strb	wzr, [x8, #0x10]
    4cc0: 5283ea08     	mov	w8, #0x1f50             // =8016
    4cc4: 8b0802e8     	add	x8, x23, x8
    4cc8: 3900413f     	strb	wzr, [x9, #0x10]
    4ccc: 5283ee09     	mov	w9, #0x1f70             // =8048
    4cd0: 8b0902e9     	add	x9, x23, x9
    4cd4: 3900411f     	strb	wzr, [x8, #0x10]
    4cd8: 5283f208     	mov	w8, #0x1f90             // =8080
    4cdc: 8b0802e8     	add	x8, x23, x8
    4ce0: 3900413f     	strb	wzr, [x9, #0x10]
    4ce4: 5283f609     	mov	w9, #0x1fb0             // =8112
    4ce8: 8b0902e9     	add	x9, x23, x9
    4cec: 3900411f     	strb	wzr, [x8, #0x10]
    4cf0: 5283fa08     	mov	w8, #0x1fd0             // =8144
    4cf4: 8b0802e8     	add	x8, x23, x8
    4cf8: 3900413f     	strb	wzr, [x9, #0x10]
    4cfc: 52961f29     	mov	w9, #0xb0f9             // =45305
    4d00: 3900411f     	strb	wzr, [x8, #0x10]
    4d04: 528003e8     	mov	w8, #0x1f               // =31
    4d08: 72a8db69     	movk	w9, #0x46db, lsl #16
    4d0c: f90a5bff     	str	xzr, [sp, #0x14b0]
    4d10: f90a47ff     	str	xzr, [sp, #0x1488]
    4d14: f90a4bff     	str	xzr, [sp, #0x1490]
    4d18: f90a37ff     	str	xzr, [sp, #0x1468]
    4d1c: f90a3bff     	str	xzr, [sp, #0x1470]
    4d20: 3d84eea0     	str	q0, [x21, #0x13b0]
    4d24: f90a17ff     	str	xzr, [sp, #0x1428]
    4d28: f90a1bff     	str	xzr, [sp, #0x1430]
    4d2c: 3d84dea0     	str	q0, [x21, #0x1370]
    4d30: f909f7ff     	str	xzr, [sp, #0x13e8]
    4d34: f909fbff     	str	xzr, [sp, #0x13f0]
    4d38: 3d84cea0     	str	q0, [x21, #0x1330]
    4d3c: f909d7ff     	str	xzr, [sp, #0x13a8]
    4d40: f909dbff     	str	xzr, [sp, #0x13b0]
    4d44: f909c7ff     	str	xzr, [sp, #0x1388]
    4d48: f909cbff     	str	xzr, [sp, #0x1390]
    4d4c: f909b7ff     	str	xzr, [sp, #0x1368]
    4d50: f909bbff     	str	xzr, [sp, #0x1370]
    4d54: 3d84aea0     	str	q0, [x21, #0x12b0]
    4d58: f90997ff     	str	xzr, [sp, #0x1328]
    4d5c: f9099bff     	str	xzr, [sp, #0x1330]
    4d60: 3d845ea0     	str	q0, [x21, #0x1170]
    4d64: f90977ff     	str	xzr, [sp, #0x12e8]
    4d68: f9097bff     	str	xzr, [sp, #0x12f0]
    4d6c: f90967ff     	str	xzr, [sp, #0x12c8]
    4d70: f9096bff     	str	xzr, [sp, #0x12d0]
    4d74: 3d8486a0     	str	q0, [x21, #0x1210]
    4d78: f90947ff     	str	xzr, [sp, #0x1288]
    4d7c: f9094bff     	str	xzr, [sp, #0x1290]
    4d80: f90937ff     	str	xzr, [sp, #0x1268]
    4d84: f9093bff     	str	xzr, [sp, #0x1270]
    4d88: 3d846ea0     	str	q0, [x21, #0x11b0]
    4d8c: f90917ff     	str	xzr, [sp, #0x1228]
    4d90: f9091bff     	str	xzr, [sp, #0x1230]
    4d94: f90847ff     	str	xzr, [sp, #0x1088]
    4d98: f908f7ff     	str	xzr, [sp, #0x11e8]
    4d9c: f908fbff     	str	xzr, [sp, #0x11f0]
    4da0: f908e7ff     	str	xzr, [sp, #0x11c8]
    4da4: f908ebff     	str	xzr, [sp, #0x11d0]
    4da8: 3d8446a0     	str	q0, [x21, #0x1110]
    4dac: f908c7ff     	str	xzr, [sp, #0x1188]
    4db0: f908cbff     	str	xzr, [sp, #0x1190]
    4db4: f908b7ff     	str	xzr, [sp, #0x1168]
    4db8: f908bbff     	str	xzr, [sp, #0x1170]
    4dbc: 3d842ea0     	str	q0, [x21, #0x10b0]
    4dc0: f90897ff     	str	xzr, [sp, #0x1128]
    4dc4: f9089bff     	str	xzr, [sp, #0x1130]
    4dc8: 3d841ea0     	str	q0, [x21, #0x1070]
    4dcc: f90877ff     	str	xzr, [sp, #0x10e8]
    4dd0: f9087bff     	str	xzr, [sp, #0x10f0]
    4dd4: 3d840ea0     	str	q0, [x21, #0x1030]
    4dd8: f90857ff     	str	xzr, [sp, #0x10a8]
    4ddc: f9085bff     	str	xzr, [sp, #0x10b0]
    4de0: f9084bff     	str	xzr, [sp, #0x1090]
    4de4: 3d83dea0     	str	q0, [x21, #0xf70]
    4de8: 390041bf     	strb	wzr, [x13, #0x10]
    4dec: f90837ff     	str	xzr, [sp, #0x1068]
    4df0: f9083bff     	str	xzr, [sp, #0x1070]
    4df4: 393f82bf     	strb	wzr, [x21, #0xfe0]
    4df8: 3d83eea0     	str	q0, [x21, #0xfb0]
    4dfc: 393f02bf     	strb	wzr, [x21, #0xfc0]
    4e00: f90817ff     	str	xzr, [sp, #0x1028]
    4e04: f9081bff     	str	xzr, [sp, #0x1030]
    4e08: f907ebff     	str	xzr, [sp, #0xfd0]
    4e0c: 393e02bf     	strb	wzr, [x21, #0xf80]
    4e10: f907f7ff     	str	xzr, [sp, #0xfe8]
    4e14: f907fbff     	str	xzr, [sp, #0xff0]
    4e18: f907e7ff     	str	xzr, [sp, #0xfc8]
    4e1c: f907c7ff     	str	xzr, [sp, #0xf88]
    4e20: 393d02bf     	strb	wzr, [x21, #0xf40]
    4e24: 3d83c6a0     	str	q0, [x21, #0xf10]
    4e28: 393c82bf     	strb	wzr, [x21, #0xf20]
    4e2c: 3d839ea0     	str	q0, [x21, #0xe70]
    4e30: f907cbff     	str	xzr, [sp, #0xf90]
    4e34: f907b7ff     	str	xzr, [sp, #0xf68]
    4e38: f907bbff     	str	xzr, [sp, #0xf70]
    4e3c: 393de3ff     	strb	wzr, [sp, #0xf78]
    4e40: 3d83aea0     	str	q0, [x21, #0xeb0]
    4e44: 393d63ff     	strb	wzr, [sp, #0xf58]
    4e48: f90797ff     	str	xzr, [sp, #0xf28]
    4e4c: f9079bff     	str	xzr, [sp, #0xf30]
    4e50: f9076bff     	str	xzr, [sp, #0xed0]
    4e54: 393c63ff     	strb	wzr, [sp, #0xf18]
    4e58: f90777ff     	str	xzr, [sp, #0xee8]
    4e5c: f9077bff     	str	xzr, [sp, #0xef0]
    4e60: f90767ff     	str	xzr, [sp, #0xec8]
    4e64: f90747ff     	str	xzr, [sp, #0xe88]
    4e68: 393b63ff     	strb	wzr, [sp, #0xed8]
    4e6c: 3d8386a0     	str	q0, [x21, #0xe10]
    4e70: 393ae3ff     	strb	wzr, [sp, #0xeb8]
    4e74: 3d835ea0     	str	q0, [x21, #0xd70]
    4e78: f9074bff     	str	xzr, [sp, #0xe90]
    4e7c: f90737ff     	str	xzr, [sp, #0xe68]
    4e80: f9073bff     	str	xzr, [sp, #0xe70]
    4e84: 3939e3ff     	strb	wzr, [sp, #0xe78]
    4e88: 3d836ea0     	str	q0, [x21, #0xdb0]
    4e8c: 393963ff     	strb	wzr, [sp, #0xe58]
    4e90: f90717ff     	str	xzr, [sp, #0xe28]
    4e94: f9071bff     	str	xzr, [sp, #0xe30]
    4e98: f906ebff     	str	xzr, [sp, #0xdd0]
    4e9c: 393863ff     	strb	wzr, [sp, #0xe18]
    4ea0: f906f7ff     	str	xzr, [sp, #0xde8]
    4ea4: f906fbff     	str	xzr, [sp, #0xdf0]
    4ea8: f906e7ff     	str	xzr, [sp, #0xdc8]
    4eac: f906c7ff     	str	xzr, [sp, #0xd88]
    4eb0: 393763ff     	strb	wzr, [sp, #0xdd8]
    4eb4: 3d8346a0     	str	q0, [x21, #0xd10]
    4eb8: 3936e3ff     	strb	wzr, [sp, #0xdb8]
    4ebc: 3d831ea0     	str	q0, [x21, #0xc70]
    4ec0: f906cbff     	str	xzr, [sp, #0xd90]
    4ec4: f906b7ff     	str	xzr, [sp, #0xd68]
    4ec8: f906bbff     	str	xzr, [sp, #0xd70]
    4ecc: 3935e3ff     	strb	wzr, [sp, #0xd78]
    4ed0: 3d832ea0     	str	q0, [x21, #0xcb0]
    4ed4: 393563ff     	strb	wzr, [sp, #0xd58]
    4ed8: f90697ff     	str	xzr, [sp, #0xd28]
    4edc: f9069bff     	str	xzr, [sp, #0xd30]
    4ee0: 3d82eea0     	str	q0, [x21, #0xbb0]
    4ee4: 393463ff     	strb	wzr, [sp, #0xd18]
    4ee8: f90677ff     	str	xzr, [sp, #0xce8]
    4eec: f9067bff     	str	xzr, [sp, #0xcf0]
    4ef0: 3d830ea0     	str	q0, [x21, #0xc30]
    4ef4: 393363ff     	strb	wzr, [sp, #0xcd8]
    4ef8: f90657ff     	str	xzr, [sp, #0xca8]
    4efc: f90647ff     	str	xzr, [sp, #0xc88]
    4f00: f9065bff     	str	xzr, [sp, #0xcb0]
    4f04: f9064bff     	str	xzr, [sp, #0xc90]
    4f08: f90637ff     	str	xzr, [sp, #0xc68]
    4f0c: 393263ff     	strb	wzr, [sp, #0xc98]
    4f10: f9063bff     	str	xzr, [sp, #0xc70]
    4f14: 3931e3ff     	strb	wzr, [sp, #0xc78]
    4f18: 393163ff     	strb	wzr, [sp, #0xc58]
    4f1c: f90617ff     	str	xzr, [sp, #0xc28]
    4f20: f9061bff     	str	xzr, [sp, #0xc30]
    4f24: 3d82dea0     	str	q0, [x21, #0xb70]
    4f28: 393063ff     	strb	wzr, [sp, #0xc18]
    4f2c: 3d82c6a0     	str	q0, [x21, #0xb10]
    4f30: 3d82d6a0     	str	q0, [x21, #0xb50]
    4f34: 3d82cea0     	str	q0, [x21, #0xb30]
    4f38: 392f63ff     	strb	wzr, [sp, #0xbd8]
    4f3c: 392ee3ff     	strb	wzr, [sp, #0xbb8]
    4f40: 3d82bea0     	str	q0, [x21, #0xaf0]
    4f44: 3d82b6a0     	str	q0, [x21, #0xad0]
    4f48: 392d63ff     	strb	wzr, [sp, #0xb58]
    4f4c: 392de3ff     	strb	wzr, [sp, #0xb78]
    4f50: 3d82aea0     	str	q0, [x21, #0xab0]
    4f54: 3d829ea0     	str	q0, [x21, #0xa70]
    4f58: 3d82a6a0     	str	q0, [x21, #0xa90]
    4f5c: f90c3bff     	str	xzr, [sp, #0x1870]
    4f60: f90c37ff     	str	xzr, [sp, #0x1868]
    4f64: f90c4bff     	str	xzr, [sp, #0x1890]
    4f68: f90c47ff     	str	xzr, [sp, #0x1888]
    4f6c: 3d8606a0     	str	q0, [x21, #0x1810]
    4f70: f90c6bff     	str	xzr, [sp, #0x18d0]
    4f74: f90c67ff     	str	xzr, [sp, #0x18c8]
    4f78: f90c7bff     	str	xzr, [sp, #0x18f0]
    4f7c: f90c77ff     	str	xzr, [sp, #0x18e8]
    4f80: 3d861ea0     	str	q0, [x21, #0x1870]
    4f84: f90c9bff     	str	xzr, [sp, #0x1930]
    4f88: f90c97ff     	str	xzr, [sp, #0x1928]
    4f8c: 3d862ea0     	str	q0, [x21, #0x18b0]
    4f90: f90cbbff     	str	xzr, [sp, #0x1970]
    4f94: f90cb7ff     	str	xzr, [sp, #0x1968]
    4f98: f90ccbff     	str	xzr, [sp, #0x1990]
    4f9c: f90cc7ff     	str	xzr, [sp, #0x1988]
    4fa0: 3d8646a0     	str	q0, [x21, #0x1910]
    4fa4: f90cebff     	str	xzr, [sp, #0x19d0]
    4fa8: f90ce7ff     	str	xzr, [sp, #0x19c8]
    4fac: f90cfbff     	str	xzr, [sp, #0x19f0]
    4fb0: f90cf7ff     	str	xzr, [sp, #0x19e8]
    4fb4: 3d865ea0     	str	q0, [x21, #0x1970]
    4fb8: f90d1bff     	str	xzr, [sp, #0x1a30]
    4fbc: f90d17ff     	str	xzr, [sp, #0x1a28]
    4fc0: 3d866ea0     	str	q0, [x21, #0x19b0]
    4fc4: f90d3bff     	str	xzr, [sp, #0x1a70]
    4fc8: f90d37ff     	str	xzr, [sp, #0x1a68]
    4fcc: f90d4bff     	str	xzr, [sp, #0x1a90]
    4fd0: f90d47ff     	str	xzr, [sp, #0x1a88]
    4fd4: 3d8686a0     	str	q0, [x21, #0x1a10]
    4fd8: f90d6bff     	str	xzr, [sp, #0x1ad0]
    4fdc: f90d67ff     	str	xzr, [sp, #0x1ac8]
    4fe0: f90d7bff     	str	xzr, [sp, #0x1af0]
    4fe4: f90d77ff     	str	xzr, [sp, #0x1ae8]
    4fe8: 3d869ea0     	str	q0, [x21, #0x1a70]
    4fec: f90d9bff     	str	xzr, [sp, #0x1b30]
    4ff0: f90d97ff     	str	xzr, [sp, #0x1b28]
    4ff4: 3d86aea0     	str	q0, [x21, #0x1ab0]
    4ff8: f90dbbff     	str	xzr, [sp, #0x1b70]
    4ffc: f90db7ff     	str	xzr, [sp, #0x1b68]
    5000: f90dcbff     	str	xzr, [sp, #0x1b90]
    5004: f90dc7ff     	str	xzr, [sp, #0x1b88]
    5008: 3d86c6a0     	str	q0, [x21, #0x1b10]
    500c: f90debff     	str	xzr, [sp, #0x1bd0]
    5010: f90de7ff     	str	xzr, [sp, #0x1bc8]
    5014: f90dfbff     	str	xzr, [sp, #0x1bf0]
    5018: f90df7ff     	str	xzr, [sp, #0x1be8]
    501c: 3d86dea0     	str	q0, [x21, #0x1b70]
    5020: f90e1bff     	str	xzr, [sp, #0x1c30]
    5024: f90e17ff     	str	xzr, [sp, #0x1c28]
    5028: 3d86eea0     	str	q0, [x21, #0x1bb0]
    502c: f90e3bff     	str	xzr, [sp, #0x1c70]
    5030: f90e37ff     	str	xzr, [sp, #0x1c68]
    5034: f90e4bff     	str	xzr, [sp, #0x1c90]
    5038: f90e47ff     	str	xzr, [sp, #0x1c88]
    503c: f90e5bff     	str	xzr, [sp, #0x1cb0]
    5040: f90e57ff     	str	xzr, [sp, #0x1ca8]
    5044: 3d870ea0     	str	q0, [x21, #0x1c30]
    5048: f90e7bff     	str	xzr, [sp, #0x1cf0]
    504c: f90e77ff     	str	xzr, [sp, #0x1ce8]
    5050: 3d871ea0     	str	q0, [x21, #0x1c70]
    5054: f90e9bff     	str	xzr, [sp, #0x1d30]
    5058: f90e97ff     	str	xzr, [sp, #0x1d28]
    505c: 3d872ea0     	str	q0, [x21, #0x1cb0]
    5060: f90ebbff     	str	xzr, [sp, #0x1d70]
    5064: f90eb7ff     	str	xzr, [sp, #0x1d68]
    5068: f90ecbff     	str	xzr, [sp, #0x1d90]
    506c: f90ec7ff     	str	xzr, [sp, #0x1d88]
    5070: f90edbff     	str	xzr, [sp, #0x1db0]
    5074: f90ed7ff     	str	xzr, [sp, #0x1da8]
    5078: 3d874ea0     	str	q0, [x21, #0x1d30]
    507c: f90efbff     	str	xzr, [sp, #0x1df0]
    5080: f90ef7ff     	str	xzr, [sp, #0x1de8]
    5084: 3d875ea0     	str	q0, [x21, #0x1d70]
    5088: f90f1bff     	str	xzr, [sp, #0x1e30]
    508c: f90f17ff     	str	xzr, [sp, #0x1e28]
    5090: 3d876ea0     	str	q0, [x21, #0x1db0]
    5094: f90f3bff     	str	xzr, [sp, #0x1e70]
    5098: f90f37ff     	str	xzr, [sp, #0x1e68]
    509c: f90f4bff     	str	xzr, [sp, #0x1e90]
    50a0: f90f47ff     	str	xzr, [sp, #0x1e88]
    50a4: 3d8786a0     	str	q0, [x21, #0x1e10]
    50a8: f90f6bff     	str	xzr, [sp, #0x1ed0]
    50ac: f90f67ff     	str	xzr, [sp, #0x1ec8]
    50b0: f90f7bff     	str	xzr, [sp, #0x1ef0]
    50b4: f90f77ff     	str	xzr, [sp, #0x1ee8]
    50b8: 3d879ea0     	str	q0, [x21, #0x1e70]
    50bc: f90f9bff     	str	xzr, [sp, #0x1f30]
    50c0: f90f97ff     	str	xzr, [sp, #0x1f28]
    50c4: 3d87aea0     	str	q0, [x21, #0x1eb0]
    50c8: f90fbbff     	str	xzr, [sp, #0x1f70]
    50cc: f90fb7ff     	str	xzr, [sp, #0x1f68]
    50d0: 3d87bea0     	str	q0, [x21, #0x1ef0]
    50d4: 3d87c6a0     	str	q0, [x21, #0x1f10]
    50d8: 3d87cea0     	str	q0, [x21, #0x1f30]
    50dc: 3d87d6a0     	str	q0, [x21, #0x1f50]
    50e0: 3d87dea0     	str	q0, [x21, #0x1f70]
    50e4: 3d87e6a0     	str	q0, [x21, #0x1f90]
    50e8: 3d87eea0     	str	q0, [x21, #0x1fb0]
    50ec: 3d87f6a0     	str	q0, [x21, #0x1fd0]
    50f0: 3d87fea0     	str	q0, [x21, #0x1ff0]
    50f4: f9104feb     	str	x11, [sp, #0x2098]
    50f8: 34000a48     	cbz	w8, 0x5240 <.text+0x3b60>
    50fc: 51000508     	sub	w8, w8, #0x1
    5100: 52801f0d     	mov	w13, #0xf8              // =248
    5104: 1ac8252b     	lsr	w11, w9, w8
    5108: 1200016c     	and	w12, w11, #0x1
    510c: 910263eb     	add	x11, sp, #0x98
    5110: 14000004     	b	0x5120 <.text+0x3a40>
    5114: f10005ad     	subs	x13, x13, #0x1
    5118: 9100816b     	add	x11, x11, #0x20
    511c: 54000920     	b.eq	0x5240 <.text+0x3b60>
    5120: b940056e     	ldr	w14, [x11, #0x4]
    5124: 6b0a01df     	cmp	w14, w10
    5128: 54ffff61     	b.ne	0x5114 <.text+0x3a34>
    512c: 3940016e     	ldrb	w14, [x11]
    5130: 6b0c01df     	cmp	w14, w12
    5134: 54ffff01     	b.ne	0x5114 <.text+0x3a34>
    5138: a941356c     	ldp	x12, x13, [x11, #0x10]
    513c: 924001ae     	and	x14, x13, #0x1
    5140: f10001bf     	cmp	x13, #0x0
    5144: aa0c01ca     	orr	x10, x14, x12
    5148: fa401944     	ccmp	x10, #0x0, #0x4, ne
    514c: 1a9f17ef     	cset	w15, eq
    5150: b500006c     	cbnz	x12, 0x515c <.text+0x3a7c>
    5154: b940096a     	ldr	w10, [x11, #0x8]
    5158: 3707fd0f     	tbnz	w15, #0x0, 0x50f8 <.text+0x3a18>
    515c: 910003e8     	mov	x8, sp
    5160: 8b8d0500     	add	x0, x8, x13, asr #1
    5164: b400006e     	cbz	x14, 0x5170 <.text+0x3a90>
    5168: f9400008     	ldr	x8, [x0]
    516c: f86c690c     	ldr	x12, [x8, x12]
    5170: d63f0180     	blr	x12
    5174: 910003e0     	mov	x0, sp
    5178: 9400074a     	bl	0x6ea0 <strlen@plt>
    517c: aa0003e1     	mov	x1, x0
    5180: 910003e0     	mov	x0, sp
    5184: 94000046     	bl	0x529c <.text+0x3bbc>
    5188: f9400268     	ldr	x8, [x19]
    518c: f85e8109     	ldur	x9, [x8, #-0x18]
    5190: 910263e8     	add	x8, sp, #0x98
    5194: 8b090260     	add	x0, x19, x9
    5198: 94000732     	bl	0x6e60 <_ZNKSt6__ndk18ios_base6getlocEv@plt>
    519c: d0000021     	adrp	x1, 0xb000
    51a0: 910263e0     	add	x0, sp, #0x98
    51a4: f9405c21     	ldr	x1, [x1, #0xb8]
    51a8: 94000736     	bl	0x6e80 <_ZNKSt6__ndk16locale9use_facetERNS0_2idE@plt>
    51ac: f9400008     	ldr	x8, [x0]
    51b0: f9401d08     	ldr	x8, [x8, #0x38]
    51b4: 52800141     	mov	w1, #0xa                // =10
    51b8: d63f0100     	blr	x8
    51bc: 2a0003f3     	mov	w19, w0
    51c0: 910263e0     	add	x0, sp, #0x98
    51c4: 9400072b     	bl	0x6e70 <_ZNSt6__ndk16localeD1Ev@plt>
    51c8: d0000034     	adrp	x20, 0xb000
    51cc: 2a1303e1     	mov	w1, w19
    51d0: f9405294     	ldr	x20, [x20, #0xa0]
    51d4: aa1403e0     	mov	x0, x20
    51d8: 94000736     	bl	0x6eb0 <_ZNSt6__ndk113basic_ostreamIcNS_11char_traitsIcEEE3putEc@plt>
    51dc: aa1403e0     	mov	x0, x20
    51e0: 94000738     	bl	0x6ec0 <_ZNSt6__ndk113basic_ostreamIcNS_11char_traitsIcEEE5flushEv@plt>
    51e4: 2a1f03e0     	mov	w0, wzr
    51e8: 91400bff     	add	sp, sp, #0x2, lsl #12   // =0x2000
    51ec: 910283ff     	add	sp, sp, #0xa0
    51f0: a9474ff4     	ldp	x20, x19, [sp, #0x70]
    51f4: a94657f6     	ldp	x22, x21, [sp, #0x60]
    51f8: a9455ffc     	ldp	x28, x23, [sp, #0x50]
    51fc: a9447bfd     	ldp	x29, x30, [sp, #0x40]
    5200: 6d4323e9     	ldp	d9, d8, [sp, #0x30]
    5204: 6d422beb     	ldp	d11, d10, [sp, #0x20]
    5208: 6d4133ed     	ldp	d13, d12, [sp, #0x10]
    520c: 6cc83bef     	ldp	d15, d14, [sp], #0x80
    5210: d65f03c0     	ret
    5214: 52800100     	mov	w0, #0x8                // =8
    5218: 940006f2     	bl	0x6de0 <__cxa_allocate_exception@plt>
    521c: d0000028     	adrp	x8, 0xb000
    5220: f9405908     	ldr	x8, [x8, #0xb0]
    5224: 91004108     	add	x8, x8, #0x10
    5228: f9000008     	str	x8, [x0]
    522c: d0000021     	adrp	x1, 0xb000
    5230: d0000022     	adrp	x2, 0xb000
    5234: f9405421     	ldr	x1, [x1, #0xa8]
    5238: f9404c42     	ldr	x2, [x2, #0x98]
    523c: 940006ed     	bl	0x6df0 <__cxa_throw@plt>
    5240: 52800100     	mov	w0, #0x8                // =8
    5244: 940006e7     	bl	0x6de0 <__cxa_allocate_exception@plt>
    5248: d0000028     	adrp	x8, 0xb000
    524c: f9405908     	ldr	x8, [x8, #0xb0]
    5250: 91004108     	add	x8, x8, #0x10
    5254: f9000008     	str	x8, [x0]
    5258: d0000021     	adrp	x1, 0xb000
    525c: d0000022     	adrp	x2, 0xb000
    5260: f9405421     	ldr	x1, [x1, #0xa8]
    5264: f9404c42     	ldr	x2, [x2, #0x98]
    5268: 940006e2     	bl	0x6df0 <__cxa_throw@plt>
    526c: aa0003f3     	mov	x19, x0
    5270: 910263e0     	add	x0, sp, #0x98
    5274: 940006ff     	bl	0x6e70 <_ZNSt6__ndk16localeD1Ev@plt>
    5278: aa1303e0     	mov	x0, x19
    527c: 94000715     	bl	0x6ed0 <_Unwind_Resume@plt>
    5280: aa0003f3     	mov	x19, x0
    5284: 910263e0     	add	x0, sp, #0x98
    5288: 940006fa     	bl	0x6e70 <_ZNSt6__ndk16localeD1Ev@plt>
    528c: aa1303e0     	mov	x0, x19
    5290: 94000710     	bl	0x6ed0 <_Unwind_Resume@plt>
    5294: 94000110     	bl	0x56d4 <.text+0x3ff4>
    5298: 9400010f     	bl	0x56d4 <.text+0x3ff4>
    529c: d10243ff     	sub	sp, sp, #0x90
    52a0: a9037bfd     	stp	x29, x30, [sp, #0x30]
    52a4: a9046ffc     	stp	x28, x27, [sp, #0x40]
    52a8: a90567fa     	stp	x26, x25, [sp, #0x50]
    52ac: a9065ff8     	stp	x24, x23, [sp, #0x60]
    52b0: a90757f6     	stp	x22, x21, [sp, #0x70]
    52b4: a9084ff4     	stp	x20, x19, [sp, #0x80]
    52b8: 9100c3fd     	add	x29, sp, #0x30
    52bc: aa0103f7     	mov	x23, x1
    52c0: aa0003f8     	mov	x24, x0
    52c4: d0000033     	adrp	x19, 0xb000
    52c8: 910023e0     	add	x0, sp, #0x8
    52cc: f9405273     	ldr	x19, [x19, #0xa0]
    52d0: aa1303e1     	mov	x1, x19
    52d4: 940006cb     	bl	0x6e00 <_ZNSt6__ndk113basic_ostreamIcNS_11char_traitsIcEEE6sentryC1ERS3_@plt>
    52d8: 394023e8     	ldrb	w8, [sp, #0x8]
    52dc: 7100051f     	cmp	w8, #0x1
    52e0: 54000e41     	b.ne	0x54a8 <.text+0x3dc8>
    52e4: f9400268     	ldr	x8, [x19]
    52e8: f85e8108     	ldur	x8, [x8, #-0x18]
    52ec: 8b080274     	add	x20, x19, x8
    52f0: b9409299     	ldr	w25, [x20, #0x90]
    52f4: f9401695     	ldr	x21, [x20, #0x28]
    52f8: b9400a9a     	ldr	w26, [x20, #0x8]
    52fc: 3100073f     	cmn	w25, #0x1
    5300: 54000100     	b.eq	0x5320 <.text+0x3c40>
    5304: 52801608     	mov	w8, #0xb0               // =176
    5308: 8b17031b     	add	x27, x24, x23
    530c: 0a080348     	and	w8, w26, w8
    5310: 7100811f     	cmp	w8, #0x20
    5314: 9a980376     	csel	x22, x27, x24, eq
    5318: b5000315     	cbnz	x21, 0x5378 <.text+0x3c98>
    531c: 1400005c     	b	0x548c <.text+0x3dac>
    5320: 910063e8     	add	x8, sp, #0x18
    5324: aa1403e0     	mov	x0, x20
    5328: 940006ce     	bl	0x6e60 <_ZNKSt6__ndk18ios_base6getlocEv@plt>
    532c: d0000021     	adrp	x1, 0xb000
    5330: 910063e0     	add	x0, sp, #0x18
    5334: f9405c21     	ldr	x1, [x1, #0xb8]
    5338: 940006d2     	bl	0x6e80 <_ZNKSt6__ndk16locale9use_facetERNS0_2idE@plt>
    533c: f9400008     	ldr	x8, [x0]
    5340: f9401d08     	ldr	x8, [x8, #0x38]
    5344: 52800401     	mov	w1, #0x20               // =32
    5348: d63f0100     	blr	x8
    534c: 2a0003f6     	mov	w22, w0
    5350: 910063e0     	add	x0, sp, #0x18
    5354: 940006c7     	bl	0x6e70 <_ZNSt6__ndk16localeD1Ev@plt>
    5358: 12001ed9     	and	w25, w22, #0xff
    535c: b9009299     	str	w25, [x20, #0x90]
    5360: 52801608     	mov	w8, #0xb0               // =176
    5364: 8b17031b     	add	x27, x24, x23
    5368: 0a080348     	and	w8, w26, w8
    536c: 7100811f     	cmp	w8, #0x20
    5370: 9a980376     	csel	x22, x27, x24, eq
    5374: b40008d5     	cbz	x21, 0x548c <.text+0x3dac>
    5378: cb1802da     	sub	x26, x22, x24
    537c: f9400e9c     	ldr	x28, [x20, #0x18]
    5380: f100075f     	cmp	x26, #0x1
    5384: 5400012b     	b.lt	0x53a8 <.text+0x3cc8>
    5388: f94002a8     	ldr	x8, [x21]
    538c: f9403108     	ldr	x8, [x8, #0x60]
    5390: aa1503e0     	mov	x0, x21
    5394: aa1803e1     	mov	x1, x24
    5398: aa1a03e2     	mov	x2, x26
    539c: d63f0100     	blr	x8
    53a0: eb1a001f     	cmp	x0, x26
    53a4: 54000741     	b.ne	0x548c <.text+0x3dac>
    53a8: eb17039f     	cmp	x28, x23
    53ac: 5400056d     	b.le	0x5458 <.text+0x3d78>
    53b0: cb170397     	sub	x23, x28, x23
    53b4: f1005eff     	cmp	x23, #0x17
    53b8: 540000c2     	b.hs	0x53d0 <.text+0x3cf0>
    53bc: 531f7ae8     	lsl	w8, w23, #1
    53c0: 910063e9     	add	x9, sp, #0x18
    53c4: b2400138     	orr	x24, x9, #0x1
    53c8: 390063e8     	strb	w8, [sp, #0x18]
    53cc: 1400000b     	b	0x53f8 <.text+0x3d18>
    53d0: b2400ae8     	orr	x8, x23, #0x7
    53d4: 52800349     	mov	w9, #0x1a               // =26
    53d8: f1005d1f     	cmp	x8, #0x17
    53dc: 9a88053a     	csinc	x26, x9, x8, eq
    53e0: aa1a03e0     	mov	x0, x26
    53e4: 94000697     	bl	0x6e40 <_Znwm@plt>
    53e8: b2400348     	orr	x8, x26, #0x1
    53ec: aa0003f8     	mov	x24, x0
    53f0: a90203f7     	stp	x23, x0, [sp, #0x20]
    53f4: f9000fe8     	str	x8, [sp, #0x18]
    53f8: aa1803e0     	mov	x0, x24
    53fc: 2a1903e1     	mov	w1, w25
    5400: aa1703e2     	mov	x2, x23
    5404: 940006b7     	bl	0x6ee0 <memset@plt>
    5408: 38376b1f     	strb	wzr, [x24, x23]
    540c: 394063e8     	ldrb	w8, [sp, #0x18]
    5410: f94002a9     	ldr	x9, [x21]
    5414: f94017ea     	ldr	x10, [sp, #0x28]
    5418: 7200011f     	tst	w8, #0x1
    541c: 910063e8     	add	x8, sp, #0x18
    5420: f9403129     	ldr	x9, [x9, #0x60]
    5424: 9a881541     	csinc	x1, x10, x8, ne
    5428: aa1503e0     	mov	x0, x21
    542c: aa1703e2     	mov	x2, x23
    5430: d63f0120     	blr	x9
    5434: 394063e8     	ldrb	w8, [sp, #0x18]
    5438: aa0003f8     	mov	x24, x0
    543c: 360000a8     	tbz	w8, #0x0, 0x5450 <.text+0x3d70>
    5440: f9400fe8     	ldr	x8, [sp, #0x18]
    5444: f94017e0     	ldr	x0, [sp, #0x28]
    5448: 927ff901     	and	x1, x8, #0xfffffffffffffffe
    544c: 94000681     	bl	0x6e50 <_ZdlPvm@plt>
    5450: eb17031f     	cmp	x24, x23
    5454: 540001c1     	b.ne	0x548c <.text+0x3dac>
    5458: cb160377     	sub	x23, x27, x22
    545c: f10006ff     	cmp	x23, #0x1
    5460: 5400012b     	b.lt	0x5484 <.text+0x3da4>
    5464: f94002a8     	ldr	x8, [x21]
    5468: f9403108     	ldr	x8, [x8, #0x60]
    546c: aa1503e0     	mov	x0, x21
    5470: aa1603e1     	mov	x1, x22
    5474: aa1703e2     	mov	x2, x23
    5478: d63f0100     	blr	x8
    547c: eb17001f     	cmp	x0, x23
    5480: 54000061     	b.ne	0x548c <.text+0x3dac>
    5484: f9000e9f     	str	xzr, [x20, #0x18]
    5488: 14000008     	b	0x54a8 <.text+0x3dc8>
    548c: f9400268     	ldr	x8, [x19]
    5490: 528000a9     	mov	w9, #0x5                // =5
    5494: f85e8108     	ldur	x8, [x8, #-0x18]
    5498: 8b080260     	add	x0, x19, x8
    549c: b9402008     	ldr	w8, [x0, #0x20]
    54a0: 2a090101     	orr	w1, w8, w9
    54a4: 9400067b     	bl	0x6e90 <_ZNSt6__ndk18ios_base5clearEj@plt>
    54a8: 910023e0     	add	x0, sp, #0x8
    54ac: 94000659     	bl	0x6e10 <_ZNSt6__ndk113basic_ostreamIcNS_11char_traitsIcEEE6sentryD1Ev@plt>
    54b0: a9484ff4     	ldp	x20, x19, [sp, #0x80]
    54b4: a94757f6     	ldp	x22, x21, [sp, #0x70]
    54b8: a9465ff8     	ldp	x24, x23, [sp, #0x60]
    54bc: a94567fa     	ldp	x26, x25, [sp, #0x50]
    54c0: a9446ffc     	ldp	x28, x27, [sp, #0x40]
    54c4: a9437bfd     	ldp	x29, x30, [sp, #0x30]
    54c8: 910243ff     	add	sp, sp, #0x90
    54cc: d65f03c0     	ret
    54d0: 394063e8     	ldrb	w8, [sp, #0x18]
    54d4: aa0003f4     	mov	x20, x0
    54d8: 36000188     	tbz	w8, #0x0, 0x5508 <.text+0x3e28>
    54dc: f9400fe8     	ldr	x8, [sp, #0x18]
    54e0: f94017e0     	ldr	x0, [sp, #0x28]
    54e4: 927ff901     	and	x1, x8, #0xfffffffffffffffe
    54e8: 9400065a     	bl	0x6e50 <_ZdlPvm@plt>
    54ec: 14000007     	b	0x5508 <.text+0x3e28>
    54f0: aa0003f4     	mov	x20, x0
    54f4: 910063e0     	add	x0, sp, #0x18
    54f8: 9400065e     	bl	0x6e70 <_ZNSt6__ndk16localeD1Ev@plt>
    54fc: 14000003     	b	0x5508 <.text+0x3e28>
    5500: 14000001     	b	0x5504 <.text+0x3e24>
    5504: aa0003f4     	mov	x20, x0
    5508: 910023e0     	add	x0, sp, #0x8
    550c: 94000641     	bl	0x6e10 <_ZNSt6__ndk113basic_ostreamIcNS_11char_traitsIcEEE6sentryD1Ev@plt>
    5510: 14000002     	b	0x5518 <.text+0x3e38>
    5514: aa0003f4     	mov	x20, x0
    5518: aa1403e0     	mov	x0, x20
    551c: 94000629     	bl	0x6dc0 <__cxa_begin_catch@plt>
    5520: f9400268     	ldr	x8, [x19]
    5524: f85e8108     	ldur	x8, [x8, #-0x18]
    5528: 8b080260     	add	x0, x19, x8
    552c: 9400063d     	bl	0x6e20 <_ZNSt6__ndk18ios_base33__set_badbit_and_consider_rethrowEv@plt>
    5530: 94000640     	bl	0x6e30 <__cxa_end_catch@plt>
    5534: 17ffffdf     	b	0x54b0 <.text+0x3dd0>
    5538: aa0003f3     	mov	x19, x0
    553c: 9400063d     	bl	0x6e30 <__cxa_end_catch@plt>
    5540: aa1303e0     	mov	x0, x19
    5544: 94000663     	bl	0x6ed0 <_Unwind_Resume@plt>
    5548: 94000063     	bl	0x56d4 <.text+0x3ff4>
    554c: 39407408     	ldrb	w8, [x0, #0x1d]
    5550: 7100051f     	cmp	w8, #0x1
    5554: 54000be1     	b.ne	0x56d0 <.text+0x3ff0>
    5558: d10203ff     	sub	sp, sp, #0x80
    555c: a9067bfd     	stp	x29, x30, [sp, #0x60]
    5560: f9003bf3     	str	x19, [sp, #0x70]
    5564: 910183fd     	add	x29, sp, #0x60
    5568: fc41e001     	ldur	d1, [x0, #0x1e]
    556c: 3cc26000     	ldur	q0, [x0, #0x26]
    5570: aa0003f3     	mov	x19, x0
    5574: d10043a0     	sub	x0, x29, #0x10
    5578: f81f83bf     	stur	xzr, [x29, #-0x8]
    557c: fc1f03a1     	stur	d1, [x29, #-0x10]
    5580: 94000059     	bl	0x56e4 <.text+0x4004>
    5584: f0ffffc8     	adrp	x8, 0x0
    5588: 4e080c00     	dup	v0.2d, x0
    558c: f0ffffc9     	adrp	x9, 0x0
    5590: 3dc35d02     	ldr	q2, [x8, #0xd70]
    5594: f0ffffc8     	adrp	x8, 0x0
    5598: 3dc33921     	ldr	q1, [x9, #0xce0]
    559c: 3dc34903     	ldr	q3, [x8, #0xd20]
    55a0: f0ffffc8     	adrp	x8, 0x0
    55a4: f0ffffc9     	adrp	x9, 0x0
    55a8: 3c9e03a2     	stur	q2, [x29, #-0x20]
    55ac: 6ee24402     	ushl	v2.2d, v0.2d, v2.2d
    55b0: 6ee14401     	ushl	v1.2d, v0.2d, v1.2d
    55b4: 3d800fe3     	str	q3, [sp, #0x30]
    55b8: 6ee34403     	ushl	v3.2d, v0.2d, v3.2d
    55bc: 4e181c20     	mov	v0.d[1], x1
    55c0: 3dc34d04     	ldr	q4, [x8, #0xd30]
    55c4: f0ffffc8     	adrp	x8, 0x0
    55c8: 3dc36131     	ldr	q17, [x9, #0xd80]
    55cc: 4e080445     	dup	v5.2d, v2.d[0]
    55d0: 3dc33507     	ldr	q7, [x8, #0xcd0]
    55d4: f0ffffc8     	adrp	x8, 0x0
    55d8: 3dc32910     	ldr	q16, [x8, #0xca0]
    55dc: 6e034042     	ext	v2.16b, v2.16b, v3.16b, #0x8
    55e0: 6e014063     	ext	v3.16b, v3.16b, v1.16b, #0x8
    55e4: 4e180406     	dup	v6.2d, v0.d[1]
    55e8: 6ee44400     	ushl	v0.2d, v0.2d, v4.2d
    55ec: ad009ff0     	stp	q16, q7, [sp, #0x10]
    55f0: 4e081c05     	mov	v5.d[0], x0
    55f4: d10043a0     	sub	x0, x29, #0x10
    55f8: 3d8003f1     	str	q17, [sp]
    55fc: 6e004021     	ext	v1.16b, v1.16b, v0.16b, #0x8
    5600: 4e081c20     	mov	v0.d[0], x1
    5604: 6ee744c4     	ushl	v4.2d, v6.2d, v7.2d
    5608: 6ef044c7     	ushl	v7.2d, v6.2d, v16.2d
    560c: 6ef144c6     	ushl	v6.2d, v6.2d, v17.2d
    5610: f81f83bf     	stur	xzr, [x29, #-0x8]
    5614: 4e8218a2     	uzp1	v2.4s, v5.4s, v2.4s
    5618: 4e8418e4     	uzp1	v4.4s, v7.4s, v4.4s
    561c: 4e861800     	uzp1	v0.4s, v0.4s, v6.4s
    5620: 4e811861     	uzp1	v1.4s, v3.4s, v1.4s
    5624: 4e441800     	uzp1	v0.8h, v0.8h, v4.8h
    5628: 4e411841     	uzp1	v1.8h, v2.8h, v1.8h
    562c: 4e001820     	uzp1	v0.16b, v1.16b, v0.16b
    5630: 3dc00261     	ldr	q1, [x19]
    5634: 6e201c21     	eor	v1.16b, v1.16b, v0.16b
    5638: 3cc26260     	ldur	q0, [x19, #0x26]
    563c: 3d800261     	str	q1, [x19]
    5640: 94000029     	bl	0x56e4 <.text+0x4004>
    5644: 4e080c01     	dup	v1.2d, x0
    5648: ad401be4     	ldp	q4, q6, [sp]
    564c: 1e270002     	fmov	s2, w0
    5650: 3dc00be5     	ldr	q5, [sp, #0x20]
    5654: 53087c08     	lsr	w8, w0, #8
    5658: 4e080c23     	dup	v3.2d, x1
    565c: 3cde03a7     	ldur	q7, [x29, #-0x20]
    5660: bc419260     	ldur	s0, [x19, #0x19]
    5664: 6ee44424     	ushl	v4.2d, v1.2d, v4.2d
    5668: 6ee54425     	ushl	v5.2d, v1.2d, v5.2d
    566c: 6ee64421     	ushl	v1.2d, v1.2d, v6.2d
    5670: 3dc00fe6     	ldr	q6, [sp, #0x30]
    5674: 4e0c1d02     	mov	v2.s[1], w8
    5678: 0e003800     	zip1	v0.8b, v0.8b, v0.8b
    567c: 39406268     	ldrb	w8, [x19, #0x18]
    5680: 6ee64466     	ushl	v6.2d, v3.2d, v6.2d
    5684: 6ee74463     	ushl	v3.2d, v3.2d, v7.2d
    5688: 4e851821     	uzp1	v1.4s, v1.4s, v5.4s
    568c: 4a010108     	eor	w8, w8, w1
    5690: 4ea12882     	xtn2	v2.4s, v4.2d
    5694: 39006268     	strb	w8, [x19, #0x18]
    5698: 4e861863     	uzp1	v3.4s, v3.4s, v6.4s
    569c: 4e411841     	uzp1	v1.8h, v2.8h, v1.8h
    56a0: 0e612862     	xtn	v2.4h, v3.4s
    56a4: 0e212821     	xtn	v1.8b, v1.8h
    56a8: 2e221c00     	eor	v0.8b, v0.8b, v2.8b
    56ac: fd400a62     	ldr	d2, [x19, #0x10]
    56b0: 0e001800     	uzp1	v0.8b, v0.8b, v0.8b
    56b4: 2e211c41     	eor	v1.8b, v2.8b, v1.8b
    56b8: fd000a61     	str	d1, [x19, #0x10]
    56bc: bc019260     	stur	s0, [x19, #0x19]
    56c0: 3900767f     	strb	wzr, [x19, #0x1d]
    56c4: a9467bfd     	ldp	x29, x30, [sp, #0x60]
    56c8: f9403bf3     	ldr	x19, [sp, #0x70]
    56cc: 910203ff     	add	sp, sp, #0x80
    56d0: d65f03c0     	ret
    56d4: a9bf7bfd     	stp	x29, x30, [sp, #-0x10]!
    56d8: 910003fd     	mov	x29, sp
    56dc: 940005b9     	bl	0x6dc0 <__cxa_begin_catch@plt>
    56e0: 940005bc     	bl	0x6dd0 <_ZSt9terminatev@plt>
    56e4: d105c3ff     	sub	sp, sp, #0x170
    56e8: fd007bea     	str	d10, [sp, #0xf0]
    56ec: 6d1023e9     	stp	d9, d8, [sp, #0x100]
    56f0: a9117bfd     	stp	x29, x30, [sp, #0x110]
    56f4: a9126ffc     	stp	x28, x27, [sp, #0x120]
    56f8: a91367fa     	stp	x26, x25, [sp, #0x130]
    56fc: a9145ff8     	stp	x24, x23, [sp, #0x140]
    5700: a91557f6     	stp	x22, x21, [sp, #0x150]
    5704: a9164ff4     	stp	x20, x19, [sp, #0x160]
    5708: 910443fd     	add	x29, sp, #0x110
    570c: 0e1c3c08     	mov	w8, v0.s[3]
    5710: aa0003f3     	mov	x19, x0
    5714: 910083f6     	add	x22, sp, #0x20
    5718: 928004f7     	mov	x23, #-0x28             // =-40
    571c: 9100c3f8     	add	x24, sp, #0x30
    5720: d503201f     	nop
    5724: 10fdd839     	adr	x25, 0x1228 <.rodata+0x588>
    5728: 3d800fe0     	str	q0, [sp, #0x30]
    572c: 14000039     	b	0x5810 <.text+0x4130>
    5730: 53181f89     	ubfiz	w9, w28, #8, #8
    5734: 910083e0     	add	x0, sp, #0x20
    5738: 33083d09     	bfxil	w9, w8, #8, #8
    573c: 2a1a4129     	orr	w9, w9, w26, lsl #16
    5740: 2a086128     	orr	w8, w9, w8, lsl #24
    5744: b90023e8     	str	w8, [sp, #0x20]
    5748: 94000202     	bl	0x5f50 <.text+0x4870>
    574c: d342fea8     	lsr	x8, x21, #2
    5750: 2a0003f4     	mov	w20, w0
    5754: 53087c1b     	lsr	w27, w0, #8
    5758: 53107c1c     	lsr	w28, w0, #16
    575c: 53187c1a     	lsr	w26, w0, #24
    5760: 9100c320     	add	x0, x25, #0x30
    5764: d1000515     	sub	x21, x8, #0x1
    5768: 910083e2     	add	x2, sp, #0x20
    576c: b24002c3     	orr	x3, x22, #0x1
    5770: 38756b28     	ldrb	w8, [x25, x21]
    5774: aa1503e1     	mov	x1, x21
    5778: 390083e8     	strb	w8, [sp, #0x20]
    577c: 9400027a     	bl	0x6164 <.text+0x4a84>
    5780: 91009320     	add	x0, x25, #0x24
    5784: 910083e2     	add	x2, sp, #0x20
    5788: b24002c3     	orr	x3, x22, #0x1
    578c: aa1503e1     	mov	x1, x21
    5790: 94000275     	bl	0x6164 <.text+0x4a84>
    5794: 91006320     	add	x0, x25, #0x18
    5798: 910083e2     	add	x2, sp, #0x20
    579c: b24002c3     	orr	x3, x22, #0x1
    57a0: aa1503e1     	mov	x1, x21
    57a4: 94000270     	bl	0x6164 <.text+0x4a84>
    57a8: 91003320     	add	x0, x25, #0xc
    57ac: 910083e2     	add	x2, sp, #0x20
    57b0: b24002c3     	orr	x3, x22, #0x1
    57b4: aa1503e1     	mov	x1, x21
    57b8: 9400026b     	bl	0x6164 <.text+0x4a84>
    57bc: 394083e8     	ldrb	w8, [sp, #0x20]
    57c0: 4a140108     	eor	w8, w8, w20
    57c4: 39400b09     	ldrb	w9, [x24, #0x2]
    57c8: 12001f8a     	and	w10, w28, #0xff
    57cc: 3940070b     	ldrb	w11, [x24, #0x1]
    57d0: 12001f6c     	and	w12, w27, #0xff
    57d4: 12001d08     	and	w8, w8, #0xff
    57d8: b10006f7     	adds	x23, x23, #0x1
    57dc: 4a0a0129     	eor	w9, w9, w10
    57e0: 39400f0a     	ldrb	w10, [x24, #0x3]
    57e4: 4a0c016b     	eor	w11, w11, w12
    57e8: 53103d29     	lsl	w9, w9, #16
    57ec: 4a1a014a     	eor	w10, w10, w26
    57f0: 2a0a6129     	orr	w9, w9, w10, lsl #24
    57f4: 3940030a     	ldrb	w10, [x24]
    57f8: 2a0b2129     	orr	w9, w9, w11, lsl #8
    57fc: 4a080148     	eor	w8, w10, w8
    5800: 2a080128     	orr	w8, w9, w8
    5804: b9001308     	str	w8, [x24, #0x10]
    5808: 91001318     	add	x24, x24, #0x4
    580c: 54000102     	b.hs	0x582c <.text+0x414c>
    5810: 9100b2f5     	add	x21, x23, #0x2c
    5814: 53107d1c     	lsr	w28, w8, #16
    5818: 53187d1a     	lsr	w26, w8, #24
    581c: f24006bf     	tst	x21, #0x3
    5820: 54fff880     	b.eq	0x5730 <.text+0x4050>
    5824: 53087d1b     	lsr	w27, w8, #8
    5828: 17ffffe7     	b	0x57c4 <.text+0x40e4>
    582c: 3940126c     	ldrb	w12, [x19, #0x4]
    5830: 3940d3ed     	ldrb	w13, [sp, #0x34]
    5834: 0f000768     	movi	v8.2s, #0x1b
    5838: 3940dbef     	ldrb	w15, [sp, #0x36]
    583c: 39400a68     	ldrb	w8, [x19, #0x2]
    5840: aa1f03f6     	mov	x22, xzr
    5844: 4a0c01ac     	eor	w12, w13, w12
    5848: 39401a6d     	ldrb	w13, [x19, #0x6]
    584c: 3940cbe9     	ldrb	w9, [sp, #0x32]
    5850: 39400e6a     	ldrb	w10, [x19, #0x3]
    5854: 3940cfeb     	ldrb	w11, [sp, #0x33]
    5858: 910083f7     	add	x23, sp, #0x20
    585c: 39401e70     	ldrb	w16, [x19, #0x7]
    5860: 3940dff1     	ldrb	w17, [sp, #0x37]
    5864: 4a0d01ed     	eor	w13, w15, w13
    5868: d3503da0     	lsl	x0, x13, #48
    586c: 4a080128     	eor	w8, w9, w8
    5870: 4a0a0169     	eor	w9, w11, w10
    5874: 3940166a     	ldrb	w10, [x19, #0x5]
    5878: 3940d7eb     	ldrb	w11, [sp, #0x35]
    587c: 4a10022f     	eor	w15, w17, w16
    5880: 39403a70     	ldrb	w16, [x19, #0xe]
    5884: 3940fbf1     	ldrb	w17, [sp, #0x3e]
    5888: aa0fe00f     	orr	x15, x0, x15, lsl #56
    588c: 4a0a016e     	eor	w14, w11, w10
    5890: 39403e60     	ldrb	w0, [x19, #0xf]
    5894: 3940ffe3     	ldrb	w3, [sp, #0x3f]
    5898: 4a100230     	eor	w16, w17, w16
    589c: aa0ea1ee     	orr	x14, x15, x14, lsl #40
    58a0: 39403665     	ldrb	w5, [x19, #0xd]
    58a4: d3503e10     	lsl	x16, x16, #48
    58a8: 4a000060     	eor	w0, w3, w0
    58ac: 3940f7e3     	ldrb	w3, [sp, #0x3d]
    58b0: aa0c81cc     	orr	x12, x14, x12, lsl #32
    58b4: 53081d29     	lsl	w9, w9, #24
    58b8: 39402e62     	ldrb	w2, [x19, #0xb]
    58bc: aa00e210     	orr	x16, x16, x0, lsl #56
    58c0: 39403264     	ldrb	w4, [x19, #0xc]
    58c4: 3940efe0     	ldrb	w0, [sp, #0x3b]
    58c8: 4a050063     	eor	w3, w3, w5
    58cc: 3940f3e5     	ldrb	w5, [sp, #0x3c]
    58d0: 3940066b     	ldrb	w11, [x19, #0x1]
    58d4: 3940c7ee     	ldrb	w14, [sp, #0x31]
    58d8: aa03a210     	orr	x16, x16, x3, lsl #40
    58dc: aa090189     	orr	x9, x12, x9
    58e0: 3940026a     	ldrb	w10, [x19]
    58e4: 3940c3ef     	ldrb	w15, [sp, #0x30]
    58e8: 4a020000     	eor	w0, w0, w2
    58ec: 4a0400a2     	eor	w2, w5, w4
    58f0: b3701d09     	bfi	x9, x8, #16, #8
    58f4: 39402a71     	ldrb	w17, [x19, #0xa]
    58f8: 3940ebe3     	ldrb	w3, [sp, #0x3a]
    58fc: aa02820c     	orr	x12, x16, x2, lsl #32
    5900: 53081c10     	lsl	w16, w0, #24
    5904: 4a0b01cb     	eor	w11, w14, w11
    5908: 4a0a01ea     	eor	w10, w15, w10
    590c: 3940226d     	ldrb	w13, [x19, #0x8]
    5910: b3781d69     	bfi	x9, x11, #8, #8
    5914: 39402661     	ldrb	w1, [x19, #0x9]
    5918: 3940e7e8     	ldrb	w8, [sp, #0x39]
    591c: 4a11006e     	eor	w14, w3, w17
    5920: aa10018c     	orr	x12, x12, x16
    5924: 3940e3ef     	ldrb	w15, [sp, #0x38]
    5928: 92401d4a     	and	x10, x10, #0xff
    592c: b3701dcc     	bfi	x12, x14, #16, #8
    5930: 4a010108     	eor	w8, w8, w1
    5934: aa0a0129     	orr	x9, x9, x10
    5938: f0ffffca     	adrp	x10, 0x0
    593c: 4a0d01eb     	eor	w11, w15, w13
    5940: 3dc33d40     	ldr	q0, [x10, #0xcf0]
    5944: b3781d0c     	bfi	x12, x8, #8, #8
    5948: 92401d68     	and	x8, x11, #0xff
    594c: f0ffffcb     	adrp	x11, 0x0
    5950: 9100c3f8     	add	x24, sp, #0x30
    5954: 3d8007e0     	str	q0, [sp, #0x10]
    5958: 3dc32d60     	ldr	q0, [x11, #0xcb0]
    595c: aa080188     	orr	x8, x12, x8
    5960: a90223e9     	stp	x9, x8, [sp, #0x20]
    5964: 3d8003e0     	str	q0, [sp]
    5968: 910083e0     	add	x0, sp, #0x20
    596c: 94000179     	bl	0x5f50 <.text+0x4870>
    5970: 2a0003f3     	mov	w19, w0
    5974: b27e02e0     	orr	x0, x23, #0x4
    5978: 94000176     	bl	0x5f50 <.text+0x4870>
    597c: 2a0003f5     	mov	w21, w0
    5980: 910022e0     	add	x0, x23, #0x8
    5984: 94000173     	bl	0x5f50 <.text+0x4870>
    5988: 2a0003f4     	mov	w20, w0
    598c: 910032e0     	add	x0, x23, #0xc
    5990: 94000170     	bl	0x5f50 <.text+0x4870>
    5994: 2a1503e8     	mov	w8, w21
    5998: 2a1403e9     	mov	w9, w20
    599c: 12001e6e     	and	w14, w19, #0xff
    59a0: 92701d2b     	and	x11, x9, #0xff0000
    59a4: 92781d0c     	and	x12, x8, #0xff00
    59a8: 2a1303ea     	mov	w10, w19
    59ac: aa0b018b     	orr	x11, x12, x11
    59b0: 12001ead     	and	w13, w21, #0xff
    59b4: d348fd4c     	lsr	x12, x10, #8
    59b8: aa0e016b     	orr	x11, x11, x14
    59bc: 2a0003ef     	mov	w15, w0
    59c0: 92681d0e     	and	x14, x8, #0xff000000
    59c4: 92701d4a     	and	x10, x10, #0xff0000
    59c8: aa0d816b     	orr	x11, x11, x13, lsl #32
    59cc: 92681ded     	and	x13, x15, #0xff000000
    59d0: aa0a01ce     	orr	x14, x14, x10
    59d4: d348fd29     	lsr	x9, x9, #8
    59d8: d350fd08     	lsr	x8, x8, #16
    59dc: b3581d8e     	bfi	x14, x12, #40, #8
    59e0: aa0d016b     	orr	x11, x11, x13
    59e4: 12001e8c     	and	w12, w20, #0xff
    59e8: aa0b03ea     	mov	x10, x11
    59ec: d350fded     	lsr	x13, x15, #16
    59f0: 92781def     	and	x15, x15, #0xff00
    59f4: aa0c01cc     	orr	x12, x14, x12
    59f8: b3581d2a     	bfi	x10, x9, #40, #8
    59fc: d3607e69     	lsl	x9, x19, #32
    5a00: b3501d0c     	bfi	x12, x8, #48, #8
    5a04: d3607e8e     	lsl	x14, x20, #32
    5a08: 12001c10     	and	w16, w0, #0xff
    5a0c: aa0a03e8     	mov	x8, x10
    5a10: 92481d29     	and	x9, x9, #0xff00000000000000
    5a14: d350fd4a     	lsr	x10, x10, #16
    5a18: aa0f018c     	orr	x12, x12, x15
    5a1c: b3501da8     	bfi	x8, x13, #48, #8
    5a20: 92481dcd     	and	x13, x14, #0xff00000000000000
    5a24: aa10818c     	orr	x12, x12, x16, lsl #32
    5a28: 1e270143     	fmov	s3, w10
    5a2c: d348fd6b     	lsr	x11, x11, #8
    5a30: aa090109     	orr	x9, x8, x9
    5a34: d358fd08     	lsr	x8, x8, #24
    5a38: aa0d018c     	orr	x12, x12, x13
    5a3c: d360fd2d     	lsr	x13, x9, #32
    5a40: 9e670120     	fmov	d0, x9
    5a44: d370fd2e     	lsr	x14, x9, #48
    5a48: 4ea31c73     	mov	v19.16b, v3.16b
    5a4c: 1e270102     	fmov	s2, w8
    5a50: 1e2701a6     	fmov	s6, w13
    5a54: 8b160308     	add	x8, x24, x22
    5a58: 910042d6     	add	x22, x22, #0x10
    5a5c: 4e181d80     	mov	v0.d[1], x12
    5a60: 1e2701c1     	fmov	s1, w14
    5a64: d368fd2c     	lsr	x12, x9, #40
    5a68: d378fd29     	lsr	x9, x9, #56
    5a6c: 4ea21c45     	mov	v5.16b, v2.16b
    5a70: 39405511     	ldrb	w17, [x8, #0x15]
    5a74: 4ea61cc4     	mov	v4.16b, v6.16b
    5a78: 1e270191     	fmov	s17, w12
    5a7c: 39405900     	ldrb	w0, [x8, #0x16]
    5a80: 4ea11c27     	mov	v7.16b, v1.16b
    5a84: 4ea11c36     	mov	v22.16b, v1.16b
    5a88: 1e270135     	fmov	s21, w9
    5a8c: 6e097406     	mov	v6.b[4], v0.b[14]
    5a90: 6e094413     	mov	v19.b[4], v0.b[8]
    5a94: 5e010410     	mov	b16, v0.b[0]
    5a98: 6e096404     	mov	v4.b[4], v0.b[12]
    5a9c: 6e096c11     	mov	v17.b[4], v0.b[13]
    5aa0: 6e095c02     	mov	v2.b[4], v0.b[11]
    5aa4: 6e096407     	mov	v7.b[4], v0.b[12]
    5aa8: 6e097416     	mov	v22.b[4], v0.b[14]
    5aac: 6e097c01     	mov	v1.b[4], v0.b[15]
    5ab0: 6e095405     	mov	v5.b[4], v0.b[10]
    5ab4: 3940490c     	ldrb	w12, [x8, #0x12]
    5ab8: 3940450a     	ldrb	w10, [x8, #0x11]
    5abc: 0ea684d2     	add	v18.2s, v6.2s, v6.2s
    5ac0: 0f3854c6     	shl	v6.2s, v6.2s, #0x18
    5ac4: 0f385669     	shl	v9.2s, v19.2s, #0x18
    5ac8: 0f385494     	shl	v20.2s, v4.2s, #0x18
    5acc: 0f38563b     	shl	v27.2s, v17.2s, #0x18
    5ad0: 0eb1863d     	add	v29.2s, v17.2s, v17.2s
    5ad4: 0f3854f7     	shl	v23.2s, v7.2s, #0x18
    5ad8: 0ea784f9     	add	v25.2s, v7.2s, v7.2s
    5adc: 0ea48487     	add	v7.2s, v4.2s, v4.2s
    5ae0: 4eb21e5a     	mov	v26.16b, v18.16b
    5ae4: 0f3856dc     	shl	v28.2s, v22.2s, #0x18
    5ae8: 0eb686ca     	add	v10.2s, v22.2s, v22.2s
    5aec: 0f280698     	sshr	v24.2s, v20.2s, #0x18
    5af0: 4eb51eb4     	mov	v20.16b, v21.16b
    5af4: 6e097c15     	mov	v21.b[4], v0.b[15]
    5af8: 0f2806f7     	sshr	v23.2s, v23.2s, #0x18
    5afc: 2e281ce7     	eor	v7.8b, v7.8b, v8.8b
    5b00: 0f28077b     	sshr	v27.2s, v27.2s, #0x18
    5b04: 6e0c273a     	mov	v26.s[1], v25.s[1]
    5b08: 2e281f3e     	eor	v30.8b, v25.8b, v8.8b
    5b0c: 0f28079c     	sshr	v28.2s, v28.2s, #0x18
    5b10: 0ea0ab18     	cmlt	v24.2s, v24.2s, #0
    5b14: 2e281d4a     	eor	v10.8b, v10.8b, v8.8b
    5b18: 6e097414     	mov	v20.b[4], v0.b[14]
    5b1c: 0ea0aaff     	cmlt	v31.2s, v23.2s, #0
    5b20: 0ea0ab7b     	cmlt	v27.2s, v27.2s, #0
    5b24: 6e095410     	mov	v16.b[4], v0.b[10]
    5b28: 0ea0ab9c     	cmlt	v28.2s, v28.2s, #0
    5b2c: 2e311ed6     	eor	v22.8b, v22.8b, v17.8b
    5b30: 2e241e31     	eor	v17.8b, v17.8b, v4.8b
    5b34: 0eb81f17     	mov	v23.8b, v24.8b
    5b38: 2e281fb8     	eor	v24.8b, v29.8b, v8.8b
    5b3c: 39404109     	ldrb	w9, [x8, #0x10]
    5b40: 2eff1f3e     	bif	v30.8b, v25.8b, v31.8b
    5b44: 6e0c2659     	mov	v25.s[1], v18.s[1]
    5b48: 0f2804df     	sshr	v31.2s, v6.2s, #0x18
    5b4c: 0eb38666     	add	v6.2s, v19.2s, v19.2s
    5b50: 0f280533     	sshr	v19.2s, v9.2s, #0x18
    5b54: f10242df     	cmp	x22, #0x90
    5b58: 2e7a1cf7     	bsl	v23.8b, v7.8b, v26.8b
    5b5c: 0f3856ba     	shl	v26.2s, v21.2s, #0x18
    5b60: 1e270167     	fmov	s7, w11
    5b64: 2efb1fb8     	bif	v24.8b, v29.8b, v27.8b
    5b68: 0eb586bb     	add	v27.2s, v21.2s, v21.2s
    5b6c: 2e281e5d     	eor	v29.8b, v18.8b, v8.8b
    5b70: 0ea0abff     	cmlt	v31.2s, v31.2s, #0
    5b74: 2ebc1d59     	bit	v25.8b, v10.8b, v28.8b
    5b78: 2e281cdc     	eor	v28.8b, v6.8b, v8.8b
    5b7c: 0f28075a     	sshr	v26.2s, v26.2s, #0x18
    5b80: 6e094c07     	mov	v7.b[4], v0.b[9]
    5b84: 0ea0aa69     	cmlt	v9.2s, v19.2s, #0
    5b88: 2e281f6a     	eor	v10.8b, v27.8b, v8.8b
    5b8c: 4ea31c73     	mov	v19.16b, v3.16b
    5b90: 6e095c03     	mov	v3.b[4], v0.b[11]
    5b94: 2eff1e5d     	bif	v29.8b, v18.8b, v31.8b
    5b98: 0f38545f     	shl	v31.2s, v2.2s, #0x18
    5b9c: 0ea12812     	xtn	v18.2s, v0.2d
    5ba0: 0ea0ab5a     	cmlt	v26.2s, v26.2s, #0
    5ba4: 2ee91cdc     	bif	v28.8b, v6.8b, v9.8b
    5ba8: 2e351ed5     	eor	v21.8b, v22.8b, v21.8b
    5bac: 0f3854e9     	shl	v9.2s, v7.2s, #0x18
    5bb0: 6e095413     	mov	v19.b[4], v0.b[10]
    5bb4: 0ea28440     	add	v0.2s, v2.2s, v2.2s
    5bb8: 0f2807ff     	sshr	v31.2s, v31.2s, #0x18
    5bbc: 0ea784f6     	add	v22.2s, v7.2s, v7.2s
    5bc0: 2e7b1d5a     	bsl	v26.8b, v10.8b, v27.8b
    5bc4: 2e211e9b     	eor	v27.8b, v20.8b, v1.8b
    5bc8: 2e311e94     	eor	v20.8b, v20.8b, v17.8b
    5bcc: 0f280529     	sshr	v9.2s, v9.2s, #0x18
    5bd0: 2e311c21     	eor	v1.8b, v1.8b, v17.8b
    5bd4: 2e281c11     	eor	v17.8b, v0.8b, v8.8b
    5bd8: 0ea0abff     	cmlt	v31.2s, v31.2s, #0
    5bdc: 2e351ef5     	eor	v21.8b, v23.8b, v21.8b
    5be0: 2e241f64     	eor	v4.8b, v27.8b, v4.8b
    5be4: 0f38561b     	shl	v27.2s, v16.2s, #0x18
    5be8: 2e341fd4     	eor	v20.8b, v30.8b, v20.8b
    5bec: 2e211fa1     	eor	v1.8b, v29.8b, v1.8b
    5bf0: 0ea0a929     	cmlt	v9.2s, v9.2s, #0
    5bf4: 0eb08610     	add	v16.2s, v16.2s, v16.2s
    5bf8: 2ebf1e20     	bit	v0.8b, v17.8b, v31.8b
    5bfc: 2e281edd     	eor	v29.8b, v22.8b, v8.8b
    5c00: 0f38565e     	shl	v30.2s, v18.2s, #0x18
    5c04: 2e391c84     	eor	v4.8b, v4.8b, v25.8b
    5c08: 2e321cf9     	eor	v25.8b, v7.8b, v18.8b
    5c0c: 0f28077b     	sshr	v27.2s, v27.2s, #0x18
    5c10: 2e3a1e94     	eor	v20.8b, v20.8b, v26.8b
    5c14: 2e3a1c21     	eor	v1.8b, v1.8b, v26.8b
    5c18: 2e281e1f     	eor	v31.8b, v16.8b, v8.8b
    5c1c: 2e381eb5     	eor	v21.8b, v21.8b, v24.8b
    5c20: 2e271e67     	eor	v7.8b, v19.8b, v7.8b
    5c24: 2e391cb1     	eor	v17.8b, v5.8b, v25.8b
    5c28: 0ea0ab7b     	cmlt	v27.2s, v27.2s, #0
    5c2c: 2e381c97     	eor	v23.8b, v4.8b, v24.8b
    5c30: 0ea91d24     	mov	v4.8b, v9.8b
    5c34: 2f20a694     	ushll	v20.2d, v20.2s, #0x0
    5c38: 2f20a421     	ushll	v1.2d, v1.2s, #0x0
    5c3c: 2f20a6b5     	ushll	v21.2d, v21.2s, #0x0
    5c40: 0f385678     	shl	v24.2s, v19.2s, #0x18
    5c44: 2e221ce2     	eor	v2.8b, v7.8b, v2.8b
    5c48: 2e311f91     	eor	v17.8b, v28.8b, v17.8b
    5c4c: 0ebb1f7a     	mov	v26.8b, v27.8b
    5c50: 6f00e43c     	movi	v28.2d, #0x000000000000ff
    5c54: 2e761fa4     	bsl	v4.8b, v29.8b, v22.8b
    5c58: 2e391c76     	eor	v22.8b, v3.8b, v25.8b
    5c5c: 2f20a6f7     	ushll	v23.2d, v23.2s, #0x0
    5c60: 0f2807d9     	sshr	v25.2s, v30.2s, #0x18
    5c64: ad4077fe     	ldp	q30, q29, [sp]
    5c68: 2e701ffa     	bsl	v26.8b, v31.8b, v16.8b
    5c6c: 0eb3867b     	add	v27.2s, v19.2s, v19.2s
    5c70: 2e231ca3     	eor	v3.8b, v5.8b, v3.8b
    5c74: 2e201ed6     	eor	v22.8b, v22.8b, v0.8b
    5c78: 4e3c1e94     	and	v20.16b, v20.16b, v28.16b
    5c7c: 4e3c1c21     	and	v1.16b, v1.16b, v28.16b
    5c80: 4e3c1ef7     	and	v23.16b, v23.16b, v28.16b
    5c84: 4e3c1eb5     	and	v21.16b, v21.16b, v28.16b
    5c88: 2e201e20     	eor	v0.8b, v17.8b, v0.8b
    5c8c: 0f280718     	sshr	v24.2s, v24.2s, #0x18
    5c90: 2e321c63     	eor	v3.8b, v3.8b, v18.8b
    5c94: 0eb28651     	add	v17.2s, v18.2s, v18.2s
    5c98: 2e361f56     	eor	v22.8b, v26.8b, v22.8b
    5c9c: 2e281f7a     	eor	v26.8b, v27.8b, v8.8b
    5ca0: 4eb01e1b     	mov	v27.16b, v16.16b
    5ca4: 6efd4694     	ushl	v20.2d, v20.2d, v29.2d
    5ca8: 6efe4421     	ushl	v1.2d, v1.2d, v30.2d
    5cac: 4f4856f7     	shl	v23.2d, v23.2d, #0x8
    5cb0: 2f20a400     	ushll	v0.2d, v0.2s, #0x0
    5cb4: 2e241c42     	eor	v2.8b, v2.8b, v4.8b
    5cb8: 6e0c24db     	mov	v27.s[1], v6.s[1]
    5cbc: 6e0c2606     	mov	v6.s[1], v16.s[1]
    5cc0: 2f20a6c5     	ushll	v5.2d, v22.2s, #0x0
    5cc4: 4eb41c30     	orr	v16.16b, v1.16b, v20.16b
    5cc8: 4eb51ef3     	orr	v19.16b, v23.16b, v21.16b
    5ccc: 0ea0ab16     	cmlt	v22.2s, v24.2s, #0
    5cd0: 4e3c1c00     	and	v0.16b, v0.16b, v28.16b
    5cd4: 4eb31e07     	orr	v7.16b, v16.16b, v19.16b
    5cd8: 2e241c70     	eor	v16.8b, v3.8b, v4.8b
    5cdc: 2eb61f46     	bit	v6.8b, v26.8b, v22.8b
    5ce0: 6efd4401     	ushl	v1.2d, v0.2d, v29.2d
    5ce4: 4e3c1ca0     	and	v0.16b, v5.16b, v28.16b
    5ce8: 2e281e25     	eor	v5.8b, v17.8b, v8.8b
    5cec: 0ea0ab31     	cmlt	v17.2s, v25.2s, #0
    5cf0: 4f6054e3     	shl	v3.2d, v7.2d, #0x20
    5cf4: 6efe4400     	ushl	v0.2d, v0.2d, v30.2d
    5cf8: 0e053c2b     	umov	w11, v1.b[2]
    5cfc: 2e261e04     	eor	v4.8b, v16.8b, v6.8b
    5d00: 2ef11f65     	bif	v5.8b, v27.8b, v17.8b
    5d04: 0e173c25     	umov	w5, v1.b[11]
    5d08: 0e0b3c6f     	umov	w15, v3.b[5]
    5d0c: 0e0d3c70     	umov	w16, v3.b[6]
    5d10: 0e0f3c61     	umov	w1, v3.b[7]
    5d14: 0e1d3c62     	umov	w2, v3.b[14]
    5d18: 0e1f3c63     	umov	w3, v3.b[15]
    5d1c: 0e073c0d     	umov	w13, v0.b[3]
    5d20: 4a0b018b     	eor	w11, w12, w11
    5d24: 39404d0c     	ldrb	w12, [x8, #0x13]
    5d28: 0e093c6e     	umov	w14, v3.b[4]
    5d2c: 0f285484     	shl	v4.2s, v4.2s, #0x8
    5d30: 2e221ca2     	eor	v2.8b, v5.8b, v2.8b
    5d34: 0e193c66     	umov	w6, v3.b[12]
    5d38: 4a0f022f     	eor	w15, w17, w15
    5d3c: 4a100010     	eor	w16, w0, w16
    5d40: 39405d11     	ldrb	w17, [x8, #0x17]
    5d44: 39407900     	ldrb	w0, [x8, #0x1e]
    5d48: d3503e10     	lsl	x16, x16, #48
    5d4c: 4a0d018c     	eor	w12, w12, w13
    5d50: 4a010231     	eor	w17, w17, w1
    5d54: 3940510d     	ldrb	w13, [x8, #0x14]
    5d58: 53081d8c     	lsl	w12, w12, #24
    5d5c: 4a020000     	eor	w0, w0, w2
    5d60: 39407d02     	ldrb	w2, [x8, #0x1f]
    5d64: aa11e210     	orr	x16, x16, x17, lsl #56
    5d68: d3503c00     	lsl	x0, x0, #48
    5d6c: 4a0e01ad     	eor	w13, w13, w14
    5d70: 0e1b3c61     	umov	w1, v3.b[13]
    5d74: 4a030042     	eor	w2, w2, w3
    5d78: 39407503     	ldrb	w3, [x8, #0x1d]
    5d7c: aa0fa20f     	orr	x15, x16, x15, lsl #40
    5d80: aa02e000     	orr	x0, x0, x2, lsl #56
    5d84: 2f20a484     	ushll	v4.2d, v4.2s, #0x0
    5d88: 39406d02     	ldrb	w2, [x8, #0x1b]
    5d8c: 2f20a442     	ushll	v2.2d, v2.2s, #0x0
    5d90: 0e153c10     	umov	w16, v0.b[10]
    5d94: aa0d81ed     	orr	x13, x15, x13, lsl #32
    5d98: 4a010061     	eor	w1, w3, w1
    5d9c: 39407103     	ldrb	w3, [x8, #0x1c]
    5da0: 4a050042     	eor	w2, w2, w5
    5da4: aa01a000     	orr	x0, x0, x1, lsl #40
    5da8: 0e033c84     	umov	w4, v4.b[1]
    5dac: 0e133c91     	umov	w17, v4.b[9]
    5db0: 4a060061     	eor	w1, w3, w6
    5db4: 3940690f     	ldrb	w15, [x8, #0x1a]
    5db8: 0e013c4e     	umov	w14, v2.b[0]
    5dbc: aa018000     	orr	x0, x0, x1, lsl #32
    5dc0: 53081c41     	lsl	w1, w2, #24
    5dc4: 0e113c42     	umov	w2, v2.b[8]
    5dc8: aa0c01ac     	orr	x12, x13, x12
    5dcc: 39406503     	ldrb	w3, [x8, #0x19]
    5dd0: 4a1001ed     	eor	w13, w15, w16
    5dd4: b3701d6c     	bfi	x12, x11, #16, #8
    5dd8: aa01000b     	orr	x11, x0, x1
    5ddc: 39406108     	ldrb	w8, [x8, #0x18]
    5de0: b3701dab     	bfi	x11, x13, #16, #8
    5de4: 4a04014a     	eor	w10, w10, w4
    5de8: 4a11006d     	eor	w13, w3, w17
    5dec: 4a0e0129     	eor	w9, w9, w14
    5df0: b3781d4c     	bfi	x12, x10, #8, #8
    5df4: 4a020108     	eor	w8, w8, w2
    5df8: b3781dab     	bfi	x11, x13, #8, #8
    5dfc: 92401d29     	and	x9, x9, #0xff
    5e00: 92401d08     	and	x8, x8, #0xff
    5e04: aa090189     	orr	x9, x12, x9
    5e08: aa080168     	orr	x8, x11, x8
    5e0c: a90223e9     	stp	x9, x8, [sp, #0x20]
    5e10: 54ffdac1     	b.ne	0x5968 <.text+0x4288>
    5e14: 910083e0     	add	x0, sp, #0x20
    5e18: 9400004e     	bl	0x5f50 <.text+0x4870>
    5e1c: 2a0003f3     	mov	w19, w0
    5e20: b27e02e0     	orr	x0, x23, #0x4
    5e24: 9400004b     	bl	0x5f50 <.text+0x4870>
    5e28: 2a0003f5     	mov	w21, w0
    5e2c: 910022e0     	add	x0, x23, #0x8
    5e30: 94000048     	bl	0x5f50 <.text+0x4870>
    5e34: 2a0003f4     	mov	w20, w0
    5e38: 910032e0     	add	x0, x23, #0xc
    5e3c: 94000045     	bl	0x5f50 <.text+0x4870>
    5e40: 53105c0e     	ubfx	w14, w0, #16, #8
    5e44: 39435bef     	ldrb	w15, [sp, #0xd6]
    5e48: 39435ff0     	ldrb	w16, [sp, #0xd7]
    5e4c: 53105eb1     	ubfx	w17, w21, #16, #8
    5e50: 39437be1     	ldrb	w1, [sp, #0xde]
    5e54: 53083e8d     	ubfx	w13, w20, #8, #8
    5e58: 4a0e01ee     	eor	w14, w15, w14
    5e5c: 39437fef     	ldrb	w15, [sp, #0xdf]
    5e60: 4a536210     	eor	w16, w16, w19, lsr #24
    5e64: 4a110031     	eor	w17, w1, w17
    5e68: d3503dce     	lsl	x14, x14, #48
    5e6c: 394357e2     	ldrb	w2, [sp, #0xd5]
    5e70: 4a5461ef     	eor	w15, w15, w20, lsr #24
    5e74: d3503e31     	lsl	x17, x17, #48
    5e78: 394353ec     	ldrb	w12, [sp, #0xd4]
    5e7c: 53083e63     	ubfx	w3, w19, #8, #8
    5e80: aa10e1ce     	orr	x14, x14, x16, lsl #56
    5e84: 394377f0     	ldrb	w16, [sp, #0xdd]
    5e88: 39434feb     	ldrb	w11, [sp, #0xd3]
    5e8c: 39436fe1     	ldrb	w1, [sp, #0xdb]
    5e90: 4a0d004d     	eor	w13, w2, w13
    5e94: 394373e2     	ldrb	w2, [sp, #0xdc]
    5e98: aa0fe22f     	orr	x15, x17, x15, lsl #56
    5e9c: 4a15018c     	eor	w12, w12, w21
    5ea0: 4a030210     	eor	w16, w16, w3
    5ea4: aa0da1cd     	orr	x13, x14, x13, lsl #40
    5ea8: 4a40616b     	eor	w11, w11, w0, lsr #24
    5eac: 4a556031     	eor	w17, w1, w21, lsr #24
    5eb0: 4a00004e     	eor	w14, w2, w0
    5eb4: 12001d8c     	and	w12, w12, #0xff
    5eb8: aa10a1ef     	orr	x15, x15, x16, lsl #40
    5ebc: 39434bea     	ldrb	w10, [sp, #0xd2]
    5ec0: 39436bf0     	ldrb	w16, [sp, #0xda]
    5ec4: aa0c81ac     	orr	x12, x13, x12, lsl #32
    5ec8: 12001dcd     	and	w13, w14, #0xff
    5ecc: 53081d6b     	lsl	w11, w11, #24
    5ed0: aa0d81ed     	orr	x13, x15, x13, lsl #32
    5ed4: 53081e2e     	lsl	w14, w17, #24
    5ed8: 394347e9     	ldrb	w9, [sp, #0xd1]
    5edc: 4a54414a     	eor	w10, w10, w20, lsr #16
    5ee0: 394367ef     	ldrb	w15, [sp, #0xd9]
    5ee4: 4a534210     	eor	w16, w16, w19, lsr #16
    5ee8: aa0b018b     	orr	x11, x12, x11
    5eec: aa0e01ac     	orr	x12, x13, x14
    5ef0: 394343e8     	ldrb	w8, [sp, #0xd0]
    5ef4: 4a552129     	eor	w9, w9, w21, lsr #8
    5ef8: 394363f1     	ldrb	w17, [sp, #0xd8]
    5efc: 4a4021ed     	eor	w13, w15, w0, lsr #8
    5f00: b3701d4b     	bfi	x11, x10, #16, #8
    5f04: b3701e0c     	bfi	x12, x16, #16, #8
    5f08: 4a130108     	eor	w8, w8, w19
    5f0c: 4a14022a     	eor	w10, w17, w20
    5f10: 92401d08     	and	x8, x8, #0xff
    5f14: b3781d2b     	bfi	x11, x9, #8, #8
    5f18: b3781dac     	bfi	x12, x13, #8, #8
    5f1c: 92401d49     	and	x9, x10, #0xff
    5f20: aa080160     	orr	x0, x11, x8
    5f24: aa090181     	orr	x1, x12, x9
    5f28: a9564ff4     	ldp	x20, x19, [sp, #0x160]
    5f2c: fd407bea     	ldr	d10, [sp, #0xf0]
    5f30: a95557f6     	ldp	x22, x21, [sp, #0x150]
    5f34: a9545ff8     	ldp	x24, x23, [sp, #0x140]
    5f38: a95367fa     	ldp	x26, x25, [sp, #0x130]
    5f3c: a9526ffc     	ldp	x28, x27, [sp, #0x120]
    5f40: a9517bfd     	ldp	x29, x30, [sp, #0x110]
    5f44: 6d5023e9     	ldp	d9, d8, [sp, #0x100]
    5f48: 9105c3ff     	add	sp, sp, #0x170
    5f4c: d65f03c0     	ret
    5f50: d10183ff     	sub	sp, sp, #0x60
    5f54: a9017bfd     	stp	x29, x30, [sp, #0x10]
    5f58: a90267fa     	stp	x26, x25, [sp, #0x20]
    5f5c: a9035ff8     	stp	x24, x23, [sp, #0x30]
    5f60: a90457f6     	stp	x22, x21, [sp, #0x40]
    5f64: a9054ff4     	stp	x20, x19, [sp, #0x50]
    5f68: 910043fd     	add	x29, sp, #0x10
    5f6c: 39400008     	ldrb	w8, [x0]
    5f70: 52800895     	mov	w21, #0x44              // =68
    5f74: d503201f     	nop
    5f78: 10fd7396     	adr	x22, 0xde8 <.rodata+0x148>
    5f7c: 910003f8     	mov	x24, sp
    5f80: aa0003f3     	mov	x19, x0
    5f84: d344fd09     	lsr	x9, x8, #4
    5f88: 92400d14     	and	x20, x8, #0xf
    5f8c: 910003e2     	mov	x2, sp
    5f90: b2400303     	orr	x3, x24, #0x1
    5f94: aa1403e1     	mov	x1, x20
    5f98: 9bb55937     	umaddl	x23, w9, w21, x22
    5f9c: 38746ae8     	ldrb	w8, [x23, x20]
    5fa0: 9100d2e0     	add	x0, x23, #0x34
    5fa4: 390003e8     	strb	w8, [sp]
    5fa8: 9400006f     	bl	0x6164 <.text+0x4a84>
    5fac: 9100a2e0     	add	x0, x23, #0x28
    5fb0: 910003e2     	mov	x2, sp
    5fb4: b2400303     	orr	x3, x24, #0x1
    5fb8: aa1403e1     	mov	x1, x20
    5fbc: 9400006a     	bl	0x6164 <.text+0x4a84>
    5fc0: 910072e0     	add	x0, x23, #0x1c
    5fc4: 910003e2     	mov	x2, sp
    5fc8: b2400303     	orr	x3, x24, #0x1
    5fcc: aa1403e1     	mov	x1, x20
    5fd0: 94000065     	bl	0x6164 <.text+0x4a84>
    5fd4: 910042e0     	add	x0, x23, #0x10
    5fd8: 910003e2     	mov	x2, sp
    5fdc: b2400303     	orr	x3, x24, #0x1
    5fe0: aa1403e1     	mov	x1, x20
    5fe4: 94000060     	bl	0x6164 <.text+0x4a84>
    5fe8: 39400668     	ldrb	w8, [x19, #0x1]
    5fec: 910013f9     	add	x25, sp, #0x4
    5ff0: 394003f7     	ldrb	w23, [sp]
    5ff4: 910013e2     	add	x2, sp, #0x4
    5ff8: b2400323     	orr	x3, x25, #0x1
    5ffc: d344fd09     	lsr	x9, x8, #4
    6000: 92400d14     	and	x20, x8, #0xf
    6004: aa1403e1     	mov	x1, x20
    6008: 9bb55938     	umaddl	x24, w9, w21, x22
    600c: 38746b08     	ldrb	w8, [x24, x20]
    6010: 9100d300     	add	x0, x24, #0x34
    6014: 390013e8     	strb	w8, [sp, #0x4]
    6018: 94000053     	bl	0x6164 <.text+0x4a84>
    601c: 9100a300     	add	x0, x24, #0x28
    6020: 910013e2     	add	x2, sp, #0x4
    6024: b2400323     	orr	x3, x25, #0x1
    6028: aa1403e1     	mov	x1, x20
    602c: 9400004e     	bl	0x6164 <.text+0x4a84>
    6030: 91007300     	add	x0, x24, #0x1c
    6034: 910013e2     	add	x2, sp, #0x4
    6038: b2400323     	orr	x3, x25, #0x1
    603c: aa1403e1     	mov	x1, x20
    6040: 94000049     	bl	0x6164 <.text+0x4a84>
    6044: 91004300     	add	x0, x24, #0x10
    6048: 910013e2     	add	x2, sp, #0x4
    604c: b2400323     	orr	x3, x25, #0x1
    6050: aa1403e1     	mov	x1, x20
    6054: 94000044     	bl	0x6164 <.text+0x4a84>
    6058: 39400a68     	ldrb	w8, [x19, #0x2]
    605c: 910023fa     	add	x26, sp, #0x8
    6060: 394013f8     	ldrb	w24, [sp, #0x4]
    6064: 910023e2     	add	x2, sp, #0x8
    6068: b2400343     	orr	x3, x26, #0x1
    606c: d344fd09     	lsr	x9, x8, #4
    6070: 92400d14     	and	x20, x8, #0xf
    6074: aa1403e1     	mov	x1, x20
    6078: 9bb55939     	umaddl	x25, w9, w21, x22
    607c: 38746b28     	ldrb	w8, [x25, x20]
    6080: 9100d320     	add	x0, x25, #0x34
    6084: 390023e8     	strb	w8, [sp, #0x8]
    6088: 94000037     	bl	0x6164 <.text+0x4a84>
    608c: 9100a320     	add	x0, x25, #0x28
    6090: 910023e2     	add	x2, sp, #0x8
    6094: b2400343     	orr	x3, x26, #0x1
    6098: aa1403e1     	mov	x1, x20
    609c: 94000032     	bl	0x6164 <.text+0x4a84>
    60a0: 91007320     	add	x0, x25, #0x1c
    60a4: 910023e2     	add	x2, sp, #0x8
    60a8: b2400343     	orr	x3, x26, #0x1
    60ac: aa1403e1     	mov	x1, x20
    60b0: 9400002d     	bl	0x6164 <.text+0x4a84>
    60b4: 91004320     	add	x0, x25, #0x10
    60b8: 910023e2     	add	x2, sp, #0x8
    60bc: b2400343     	orr	x3, x26, #0x1
    60c0: aa1403e1     	mov	x1, x20
    60c4: 94000028     	bl	0x6164 <.text+0x4a84>
    60c8: 39400e68     	ldrb	w8, [x19, #0x3]
    60cc: d10013a2     	sub	x2, x29, #0x4
    60d0: d344fd09     	lsr	x9, x8, #4
    60d4: 92400d13     	and	x19, x8, #0xf
    60d8: aa1303e1     	mov	x1, x19
    60dc: 9bb55934     	umaddl	x20, w9, w21, x22
    60e0: d10013b6     	sub	x22, x29, #0x4
    60e4: 394023f5     	ldrb	w21, [sp, #0x8]
    60e8: b24002c3     	orr	x3, x22, #0x1
    60ec: 38736a88     	ldrb	w8, [x20, x19]
    60f0: 9100d280     	add	x0, x20, #0x34
    60f4: 381fc3a8     	sturb	w8, [x29, #-0x4]
    60f8: 9400001b     	bl	0x6164 <.text+0x4a84>
    60fc: 9100a280     	add	x0, x20, #0x28
    6100: d10013a2     	sub	x2, x29, #0x4
    6104: b24002c3     	orr	x3, x22, #0x1
    6108: aa1303e1     	mov	x1, x19
    610c: 94000016     	bl	0x6164 <.text+0x4a84>
    6110: 91007280     	add	x0, x20, #0x1c
    6114: d10013a2     	sub	x2, x29, #0x4
    6118: b24002c3     	orr	x3, x22, #0x1
    611c: aa1303e1     	mov	x1, x19
    6120: 94000011     	bl	0x6164 <.text+0x4a84>
    6124: 91004280     	add	x0, x20, #0x10
    6128: d10013a2     	sub	x2, x29, #0x4
    612c: b24002c3     	orr	x3, x22, #0x1
    6130: aa1303e1     	mov	x1, x19
    6134: 9400000c     	bl	0x6164 <.text+0x4a84>
    6138: 2a1822e8     	orr	w8, w23, w24, lsl #8
    613c: 385fc3a9     	ldurb	w9, [x29, #-0x4]
    6140: 2a154108     	orr	w8, w8, w21, lsl #16
    6144: 2a096100     	orr	w0, w8, w9, lsl #24
    6148: a9454ff4     	ldp	x20, x19, [sp, #0x50]
    614c: a94457f6     	ldp	x22, x21, [sp, #0x40]
    6150: a9435ff8     	ldp	x24, x23, [sp, #0x30]
    6154: a94267fa     	ldp	x26, x25, [sp, #0x20]
    6158: a9417bfd     	ldp	x29, x30, [sp, #0x10]
    615c: 910183ff     	add	sp, sp, #0x60
    6160: d65f03c0     	ret
    6164: a9bf7bfd     	stp	x29, x30, [sp, #-0x10]!
    6168: 910003fd     	mov	x29, sp
    616c: 39400008     	ldrb	w8, [x0]
    6170: b4000981     	cbz	x1, 0x62a0 <.text+0x4bc0>
    6174: b9400409     	ldr	w9, [x0, #0x4]
    6178: 7100113f     	cmp	w9, #0x4
    617c: 540017a8     	b.hi	0x6470 <.text+0x4d90>
    6180: 7100053f     	cmp	w9, #0x1
    6184: 540000cc     	b.gt	0x619c <.text+0x4abc>
    6188: 340008c9     	cbz	w9, 0x62a0 <.text+0x4bc0>
    618c: 7100053f     	cmp	w9, #0x1
    6190: 54000181     	b.ne	0x61c0 <.text+0x4ae0>
    6194: 0b010108     	add	w8, w8, w1
    6198: 14000042     	b	0x62a0 <.text+0x4bc0>
    619c: 7100093f     	cmp	w9, #0x2
    61a0: 540001a0     	b.eq	0x61d4 <.text+0x4af4>
    61a4: 71000d3f     	cmp	w9, #0x3
    61a8: 540000c1     	b.ne	0x61c0 <.text+0x4ae0>
    61ac: 5ac00108     	rbit	w8, w8
    61b0: f1000421     	subs	x1, x1, #0x1
    61b4: 53187d08     	lsr	w8, w8, #24
    61b8: 54ffffa1     	b.ne	0x61ac <.text+0x4acc>
    61bc: 14000039     	b	0x62a0 <.text+0x4bc0>
    61c0: 53041d09     	ubfx	w9, w8, #4, #4
    61c4: f1000421     	subs	x1, x1, #0x1
    61c8: 2a081128     	orr	w8, w9, w8, lsl #4
    61cc: 54ffffa1     	b.ne	0x61c0 <.text+0x4ae0>
    61d0: 14000034     	b	0x62a0 <.text+0x4bc0>
    61d4: f1000c3f     	cmp	x1, #0x3
    61d8: d1000429     	sub	x9, x1, #0x1
    61dc: 540005a9     	b.ls	0x6290 <.text+0x4bb0>
    61e0: f100803f     	cmp	x1, #0x20
    61e4: 54000062     	b.hs	0x61f0 <.text+0x4b10>
    61e8: aa1f03ea     	mov	x10, xzr
    61ec: 14000018     	b	0x624c <.text+0x4b6c>
    61f0: 6f00e400     	movi	v0.2d, #0000000000000000
    61f4: 6f00e401     	movi	v1.2d, #0000000000000000
    61f8: 927be82a     	and	x10, x1, #0xffffffffffffffe0
    61fc: 4e011d00     	mov	v0.b[0], w8
    6200: aa0a03e8     	mov	x8, x10
    6204: 4ea11c22     	mov	v2.16b, v1.16b
    6208: 4ea01c03     	mov	v3.16b, v0.16b
    620c: f1008108     	subs	x8, x8, #0x20
    6210: 6e205800     	mvn	v0.16b, v0.16b
    6214: 6e205821     	mvn	v1.16b, v1.16b
    6218: 54ffff61     	b.ne	0x6204 <.text+0x4b24>
    621c: 6e231c40     	eor	v0.16b, v2.16b, v3.16b
    6220: eb0a003f     	cmp	x1, x10
    6224: 6e004001     	ext	v1.16b, v0.16b, v0.16b, #0x8
    6228: 2e211c00     	eor	v0.8b, v0.8b, v1.8b
    622c: 9e660008     	fmov	x8, d0
    6230: ca488108     	eor	x8, x8, x8, lsr #32
    6234: ca484108     	eor	x8, x8, x8, lsr #16
    6238: d348fd0b     	lsr	x11, x8, #8
    623c: 4a0b0108     	eor	w8, w8, w11
    6240: 54000300     	b.eq	0x62a0 <.text+0x4bc0>
    6244: f27e083f     	tst	x1, #0x1c
    6248: 54000220     	b.eq	0x628c <.text+0x4bac>
    624c: 6f00e400     	movi	v0.2d, #0000000000000000
    6250: 2f02e6a1     	movi	d1, #0xff00ff00ff00ff
    6254: 927ef42b     	and	x11, x1, #0xfffffffffffffffc
    6258: 4e021d00     	mov	v0.h[0], w8
    625c: cb0b0148     	sub	x8, x10, x11
    6260: 2e211c00     	eor	v0.8b, v0.8b, v1.8b
    6264: b1001108     	adds	x8, x8, #0x4
    6268: 54ffffc1     	b.ne	0x6260 <.text+0x4b80>
    626c: 9e660008     	fmov	x8, d0
    6270: eb0b003f     	cmp	x1, x11
    6274: ca488108     	eor	x8, x8, x8, lsr #32
    6278: d350fd0a     	lsr	x10, x8, #16
    627c: 4a0a0108     	eor	w8, w8, w10
    6280: 54000100     	b.eq	0x62a0 <.text+0x4bc0>
    6284: cb0b0129     	sub	x9, x9, x11
    6288: 14000002     	b	0x6290 <.text+0x4bb0>
    628c: cb0a0129     	sub	x9, x9, x10
    6290: 91000529     	add	x9, x9, #0x1
    6294: f1000529     	subs	x9, x9, #0x1
    6298: 2a2803e8     	mvn	w8, w8
    629c: 54ffffc1     	b.ne	0x6294 <.text+0x4bb4>
    62a0: eb03005f     	cmp	x2, x3
    62a4: 54000e22     	b.hs	0x6468 <.text+0x4d88>
    62a8: d0ffffc9     	adrp	x9, 0x0
    62ac: d0ffffca     	adrp	x10, 0x0
    62b0: d0ffffcb     	adrp	x11, 0x0
    62b4: 3dc34120     	ldr	q0, [x9, #0xd00]
    62b8: fd46d141     	ldr	d1, [x10, #0xda0]
    62bc: 3dc33162     	ldr	q2, [x11, #0xcc0]
    62c0: 528000e9     	mov	w9, #0x7                // =7
    62c4: 128000aa     	mov	w10, #-0x6              // =-6
    62c8: 5280004b     	mov	w11, #0x2               // =2
    62cc: 14000005     	b	0x62e0 <.text+0x4c00>
    62d0: 2a2803e8     	mvn	w8, w8
    62d4: 91000442     	add	x2, x2, #0x1
    62d8: eb03005f     	cmp	x2, x3
    62dc: 54000c60     	b.eq	0x6468 <.text+0x4d88>
    62e0: b940080d     	ldr	w13, [x0, #0x8]
    62e4: 3940004c     	ldrb	w12, [x2]
    62e8: 710009bf     	cmp	w13, #0x2
    62ec: 5400056d     	b.le	0x6398 <.text+0x4cb8>
    62f0: 71000dbf     	cmp	w13, #0x3
    62f4: 54000620     	b.eq	0x63b8 <.text+0x4cd8>
    62f8: 710011bf     	cmp	w13, #0x4
    62fc: 54000741     	b.ne	0x63e4 <.text+0x4d04>
    6300: 7200090d     	ands	w13, w8, #0x7
    6304: 4e040d84     	dup	v4.4s, w12
    6308: 5301058f     	ubfx	w15, w12, #1, #1
    630c: 7200090e     	ands	w14, w8, #0x7
    6310: 510005ad     	sub	w13, w13, #0x1
    6314: 53061990     	ubfx	w16, w12, #6, #1
    6318: 0e020dc3     	dup	v3.4h, w14
    631c: 4e040dc5     	dup	v5.4s, w14
    6320: 1a8d012d     	csel	w13, w9, w13, eq
    6324: 6ea04484     	ushl	v4.4s, v4.4s, v0.4s
    6328: 710019df     	cmp	w14, #0x6
    632c: 53077d81     	lsr	w1, w12, #7
    6330: 1a8a3171     	csel	w17, w11, w10, lo
    6334: 71001ddf     	cmp	w14, #0x7
    6338: 1acd21ed     	lsl	w13, w15, w13
    633c: 0b0e0231     	add	w17, w17, w14
    6340: 1a8e07ee     	csinc	w14, wzr, w14, eq
    6344: 1200018c     	and	w12, w12, #0x1
    6348: 2e633423     	cmhi	v3.4h, v1.4h, v3.4h
    634c: 6f0717c4     	bic	v4.4s, #0xfe
    6350: 1ad1220f     	lsl	w15, w16, w17
    6354: 1ace202e     	lsl	w14, w1, w14
    6358: 92400910     	and	x16, x8, #0x7
    635c: 1ad0218c     	lsl	w12, w12, w16
    6360: 0f10a463     	sshll	v3.4s, v3.4h, #0x0
    6364: 2a0e01ee     	orr	w14, w15, w14
    6368: 6e601c43     	bsl	v3.16b, v2.16b, v0.16b
    636c: 4ea58463     	add	v3.4s, v3.4s, v5.4s
    6370: 6ea34483     	ushl	v3.4s, v4.4s, v3.4s
    6374: 6e034064     	ext	v4.16b, v3.16b, v3.16b, #0x8
    6378: 0ea41c63     	orr	v3.8b, v3.8b, v4.8b
    637c: 9e660071     	fmov	x17, d3
    6380: 2a0d022d     	orr	w13, w17, w13
    6384: d360fe31     	lsr	x17, x17, #32
    6388: 2a0e01ad     	orr	w13, w13, w14
    638c: 2a1101ad     	orr	w13, w13, w17
    6390: 2a0d018c     	orr	w12, w12, w13
    6394: 14000020     	b	0x6414 <.text+0x4d34>
    6398: 710005bf     	cmp	w13, #0x1
    639c: 540000a0     	b.eq	0x63b0 <.text+0x4cd0>
    63a0: 710009bf     	cmp	w13, #0x2
    63a4: 54000381     	b.ne	0x6414 <.text+0x4d34>
    63a8: 4a0c010c     	eor	w12, w8, w12
    63ac: 1400001a     	b	0x6414 <.text+0x4d34>
    63b0: 4b08018c     	sub	w12, w12, w8
    63b4: 14000018     	b	0x6414 <.text+0x4d34>
    63b8: 12001d0d     	and	w13, w8, #0xff
    63bc: 373801a8     	tbnz	w8, #0x7, 0x63f0 <.text+0x4d10>
    63c0: 720009bf     	tst	w13, #0x7
    63c4: 54000280     	b.eq	0x6414 <.text+0x4d34>
    63c8: 4b0803ed     	neg	w13, w8
    63cc: 1200090e     	and	w14, w8, #0x7
    63d0: 120009ad     	and	w13, w13, #0x7
    63d4: 1ace258e     	lsr	w14, w12, w14
    63d8: 1acd218c     	lsl	w12, w12, w13
    63dc: 2a0c01cc     	orr	w12, w14, w12
    63e0: 1400000d     	b	0x6414 <.text+0x4d34>
    63e4: 710015bf     	cmp	w13, #0x5
    63e8: 54000161     	b.ne	0x6414 <.text+0x4d34>
    63ec: 1400002c     	b	0x649c <.text+0x4dbc>
    63f0: 4b0d03ed     	neg	w13, w13
    63f4: 720009bf     	tst	w13, #0x7
    63f8: 540000e0     	b.eq	0x6414 <.text+0x4d34>
    63fc: 4b0d03ee     	neg	w14, w13
    6400: 120009ad     	and	w13, w13, #0x7
    6404: 120009ce     	and	w14, w14, #0x7
    6408: 1acd218d     	lsl	w13, w12, w13
    640c: 1ace258c     	lsr	w12, w12, w14
    6410: 2a0c01ac     	orr	w12, w13, w12
    6414: 3900004c     	strb	w12, [x2]
    6418: b940040c     	ldr	w12, [x0, #0x4]
    641c: 7100059f     	cmp	w12, #0x1
    6420: 5400014d     	b.le	0x6448 <.text+0x4d68>
    6424: 7100099f     	cmp	w12, #0x2
    6428: 54fff540     	b.eq	0x62d0 <.text+0x4bf0>
    642c: 71000d9f     	cmp	w12, #0x3
    6430: 54000160     	b.eq	0x645c <.text+0x4d7c>
    6434: 7100119f     	cmp	w12, #0x4
    6438: 540001c1     	b.ne	0x6470 <.text+0x4d90>
    643c: 53041d0c     	ubfx	w12, w8, #4, #4
    6440: 2a081188     	orr	w8, w12, w8, lsl #4
    6444: 17ffffa4     	b	0x62d4 <.text+0x4bf4>
    6448: 34fff46c     	cbz	w12, 0x62d4 <.text+0x4bf4>
    644c: 7100059f     	cmp	w12, #0x1
    6450: 54000101     	b.ne	0x6470 <.text+0x4d90>
    6454: 11000508     	add	w8, w8, #0x1
    6458: 17ffff9f     	b	0x62d4 <.text+0x4bf4>
    645c: 5ac00108     	rbit	w8, w8
    6460: 53187d08     	lsr	w8, w8, #24
    6464: 17ffff9c     	b	0x62d4 <.text+0x4bf4>
    6468: a8c17bfd     	ldp	x29, x30, [sp], #0x10
    646c: d65f03c0     	ret
    6470: 52800100     	mov	w0, #0x8                // =8
    6474: 9400025b     	bl	0x6de0 <__cxa_allocate_exception@plt>
    6478: b0000028     	adrp	x8, 0xb000
    647c: f9405908     	ldr	x8, [x8, #0xb0]
    6480: 91004108     	add	x8, x8, #0x10
    6484: f9000008     	str	x8, [x0]
    6488: b0000021     	adrp	x1, 0xb000
    648c: b0000022     	adrp	x2, 0xb000
    6490: f9405421     	ldr	x1, [x1, #0xa8]
    6494: f9404c42     	ldr	x2, [x2, #0x98]
    6498: 94000256     	bl	0x6df0 <__cxa_throw@plt>
    649c: 52800100     	mov	w0, #0x8                // =8
    64a0: 94000250     	bl	0x6de0 <__cxa_allocate_exception@plt>
    64a4: b0000028     	adrp	x8, 0xb000
    64a8: f9405908     	ldr	x8, [x8, #0xb0]
    64ac: 91004108     	add	x8, x8, #0x10
    64b0: f9000008     	str	x8, [x0]
    64b4: b0000021     	adrp	x1, 0xb000
    64b8: b0000022     	adrp	x2, 0xb000
    64bc: f9405421     	ldr	x1, [x1, #0xa8]
    64c0: f9404c42     	ldr	x2, [x2, #0x98]
    64c4: 9400024b     	bl	0x6df0 <__cxa_throw@plt>
    64c8: 97fffc83     	bl	0x56d4 <.text+0x3ff4>
    64cc: 97fffc82     	bl	0x56d4 <.text+0x3ff4>
    64d0: d100c3ff     	sub	sp, sp, #0x30
    64d4: a9027bfd     	stp	x29, x30, [sp, #0x20]
    64d8: 910083fd     	add	x29, sp, #0x20
    64dc: 39413008     	ldrb	w8, [x0, #0x4c]
    64e0: 7100051f     	cmp	w8, #0x1
    64e4: 54003801     	b.ne	0x6be4 <.text+0x5504>
    64e8: 3dc00000     	ldr	q0, [x0]
    64ec: 3cc0a001     	ldur	q1, [x0, #0xa]
    64f0: d0ffffcd     	adrp	x13, 0x0
    64f4: 2948ac0c     	ldp	w12, w11, [x0, #0x44]
    64f8: d0ffffce     	adrp	x14, 0x0
    64fc: d0ffffcf     	adrp	x15, 0x0
    6500: 39410009     	ldrb	w9, [x0, #0x40]
    6504: 3d8003e0     	str	q0, [sp]
    6508: 3dc341a0     	ldr	q0, [x13, #0xd00]
    650c: 3dc331e2     	ldr	q2, [x15, #0xcc0]
    6510: 3c80a3e1     	stur	q1, [sp, #0xa]
    6514: fd46d1c1     	ldr	d1, [x14, #0xda0]
    6518: aa1f03e8     	mov	x8, xzr
    651c: 910003ea     	mov	x10, sp
    6520: 528000ed     	mov	w13, #0x7               // =7
    6524: 128000ae     	mov	w14, #-0x6              // =-6
    6528: 5280004f     	mov	w15, #0x2               // =2
    652c: 14000005     	b	0x6540 <.text+0x4e60>
    6530: 2a2903e9     	mvn	w9, w9
    6534: 91000508     	add	x8, x8, #0x1
    6538: f100691f     	cmp	x8, #0x1a
    653c: 54000c20     	b.eq	0x66c0 <.text+0x4fe0>
    6540: 38686950     	ldrb	w16, [x10, x8]
    6544: 7100097f     	cmp	w11, #0x2
    6548: 5400056d     	b.le	0x65f4 <.text+0x4f14>
    654c: 71000d7f     	cmp	w11, #0x3
    6550: 54000620     	b.eq	0x6614 <.text+0x4f34>
    6554: 7100117f     	cmp	w11, #0x4
    6558: 54000741     	b.ne	0x6640 <.text+0x4f60>
    655c: 72000931     	ands	w17, w9, #0x7
    6560: 4e040e04     	dup	v4.4s, w16
    6564: 53010602     	ubfx	w2, w16, #1, #1
    6568: 72000921     	ands	w1, w9, #0x7
    656c: 51000631     	sub	w17, w17, #0x1
    6570: 53061a03     	ubfx	w3, w16, #6, #1
    6574: 0e020c23     	dup	v3.4h, w1
    6578: 4e040c25     	dup	v5.4s, w1
    657c: 1a9101b1     	csel	w17, w13, w17, eq
    6580: 6ea04484     	ushl	v4.4s, v4.4s, v0.4s
    6584: 7100183f     	cmp	w1, #0x6
    6588: 53077e05     	lsr	w5, w16, #7
    658c: 1a8e31e4     	csel	w4, w15, w14, lo
    6590: 71001c3f     	cmp	w1, #0x7
    6594: 1ad12051     	lsl	w17, w2, w17
    6598: 0b010084     	add	w4, w4, w1
    659c: 1a8107e1     	csinc	w1, wzr, w1, eq
    65a0: 12000210     	and	w16, w16, #0x1
    65a4: 2e633423     	cmhi	v3.4h, v1.4h, v3.4h
    65a8: 6f0717c4     	bic	v4.4s, #0xfe
    65ac: 1ac42062     	lsl	w2, w3, w4
    65b0: 1ac120a1     	lsl	w1, w5, w1
    65b4: 92400923     	and	x3, x9, #0x7
    65b8: 1ac32210     	lsl	w16, w16, w3
    65bc: 0f10a463     	sshll	v3.4s, v3.4h, #0x0
    65c0: 2a010041     	orr	w1, w2, w1
    65c4: 6e601c43     	bsl	v3.16b, v2.16b, v0.16b
    65c8: 4ea58463     	add	v3.4s, v3.4s, v5.4s
    65cc: 6ea34483     	ushl	v3.4s, v4.4s, v3.4s
    65d0: 6e034064     	ext	v4.16b, v3.16b, v3.16b, #0x8
    65d4: 0ea41c63     	orr	v3.8b, v3.8b, v4.8b
    65d8: 9e660064     	fmov	x4, d3
    65dc: 2a110091     	orr	w17, w4, w17
    65e0: d360fc84     	lsr	x4, x4, #32
    65e4: 2a010231     	orr	w17, w17, w1
    65e8: 2a040231     	orr	w17, w17, w4
    65ec: 2a110210     	orr	w16, w16, w17
    65f0: 14000020     	b	0x6670 <.text+0x4f90>
    65f4: 7100057f     	cmp	w11, #0x1
    65f8: 540000a0     	b.eq	0x660c <.text+0x4f2c>
    65fc: 7100097f     	cmp	w11, #0x2
    6600: 54000381     	b.ne	0x6670 <.text+0x4f90>
    6604: 4a100130     	eor	w16, w9, w16
    6608: 1400001a     	b	0x6670 <.text+0x4f90>
    660c: 4b090210     	sub	w16, w16, w9
    6610: 14000018     	b	0x6670 <.text+0x4f90>
    6614: 12001d31     	and	w17, w9, #0xff
    6618: 373801a9     	tbnz	w9, #0x7, 0x664c <.text+0x4f6c>
    661c: 72000a3f     	tst	w17, #0x7
    6620: 54000280     	b.eq	0x6670 <.text+0x4f90>
    6624: 4b0903f1     	neg	w17, w9
    6628: 12000921     	and	w1, w9, #0x7
    662c: 12000a31     	and	w17, w17, #0x7
    6630: 1ac12601     	lsr	w1, w16, w1
    6634: 1ad12210     	lsl	w16, w16, w17
    6638: 2a100030     	orr	w16, w1, w16
    663c: 1400000d     	b	0x6670 <.text+0x4f90>
    6640: 7100157f     	cmp	w11, #0x5
    6644: 54000161     	b.ne	0x6670 <.text+0x4f90>
    6648: 1400016a     	b	0x6bf0 <.text+0x5510>
    664c: 4b1103f1     	neg	w17, w17
    6650: 72000a3f     	tst	w17, #0x7
    6654: 540000e0     	b.eq	0x6670 <.text+0x4f90>
    6658: 4b1103e1     	neg	w1, w17
    665c: 12000a31     	and	w17, w17, #0x7
    6660: 12000821     	and	w1, w1, #0x7
    6664: 1ad12211     	lsl	w17, w16, w17
    6668: 1ac12610     	lsr	w16, w16, w1
    666c: 2a100230     	orr	w16, w17, w16
    6670: 7100059f     	cmp	w12, #0x1
    6674: 38286950     	strb	w16, [x10, x8]
    6678: 5400014d     	b.le	0x66a0 <.text+0x4fc0>
    667c: 7100099f     	cmp	w12, #0x2
    6680: 54fff580     	b.eq	0x6530 <.text+0x4e50>
    6684: 71000d9f     	cmp	w12, #0x3
    6688: 54000160     	b.eq	0x66b4 <.text+0x4fd4>
    668c: 7100119f     	cmp	w12, #0x4
    6690: 54002c61     	b.ne	0x6c1c <.text+0x553c>
    6694: 53041d30     	ubfx	w16, w9, #4, #4
    6698: 2a091209     	orr	w9, w16, w9, lsl #4
    669c: 17ffffa6     	b	0x6534 <.text+0x4e54>
    66a0: 34fff4ac     	cbz	w12, 0x6534 <.text+0x4e54>
    66a4: 7100059f     	cmp	w12, #0x1
    66a8: 54002ba1     	b.ne	0x6c1c <.text+0x553c>
    66ac: 11000529     	add	w9, w9, #0x1
    66b0: 17ffffa1     	b	0x6534 <.text+0x4e54>
    66b4: 5ac00129     	rbit	w9, w9
    66b8: 53187d29     	lsr	w9, w9, #24
    66bc: 17ffff9e     	b	0x6534 <.text+0x4e54>
    66c0: 2947280b     	ldp	w11, w10, [x0, #0x38]
    66c4: 3940d009     	ldrb	w9, [x0, #0x34]
    66c8: aa1f03e8     	mov	x8, xzr
    66cc: 910003ec     	mov	x12, sp
    66d0: 528000ed     	mov	w13, #0x7               // =7
    66d4: 128000ae     	mov	w14, #-0x6              // =-6
    66d8: 5280004f     	mov	w15, #0x2               // =2
    66dc: 14000005     	b	0x66f0 <.text+0x5010>
    66e0: 2a2903e9     	mvn	w9, w9
    66e4: 91000508     	add	x8, x8, #0x1
    66e8: f100691f     	cmp	x8, #0x1a
    66ec: 54000c20     	b.eq	0x6870 <.text+0x5190>
    66f0: 38686990     	ldrb	w16, [x12, x8]
    66f4: 7100095f     	cmp	w10, #0x2
    66f8: 5400056d     	b.le	0x67a4 <.text+0x50c4>
    66fc: 71000d5f     	cmp	w10, #0x3
    6700: 54000620     	b.eq	0x67c4 <.text+0x50e4>
    6704: 7100115f     	cmp	w10, #0x4
    6708: 54000741     	b.ne	0x67f0 <.text+0x5110>
    670c: 72000931     	ands	w17, w9, #0x7
    6710: 4e040e04     	dup	v4.4s, w16
    6714: 53010602     	ubfx	w2, w16, #1, #1
    6718: 72000921     	ands	w1, w9, #0x7
    671c: 51000631     	sub	w17, w17, #0x1
    6720: 53061a03     	ubfx	w3, w16, #6, #1
    6724: 0e020c23     	dup	v3.4h, w1
    6728: 4e040c25     	dup	v5.4s, w1
    672c: 1a9101b1     	csel	w17, w13, w17, eq
    6730: 6ea04484     	ushl	v4.4s, v4.4s, v0.4s
    6734: 7100183f     	cmp	w1, #0x6
    6738: 53077e05     	lsr	w5, w16, #7
    673c: 1a8e31e4     	csel	w4, w15, w14, lo
    6740: 71001c3f     	cmp	w1, #0x7
    6744: 1ad12051     	lsl	w17, w2, w17
    6748: 0b010084     	add	w4, w4, w1
    674c: 1a8107e1     	csinc	w1, wzr, w1, eq
    6750: 12000210     	and	w16, w16, #0x1
    6754: 2e633423     	cmhi	v3.4h, v1.4h, v3.4h
    6758: 6f0717c4     	bic	v4.4s, #0xfe
    675c: 1ac42062     	lsl	w2, w3, w4
    6760: 1ac120a1     	lsl	w1, w5, w1
    6764: 92400923     	and	x3, x9, #0x7
    6768: 1ac32210     	lsl	w16, w16, w3
    676c: 0f10a463     	sshll	v3.4s, v3.4h, #0x0
    6770: 2a010041     	orr	w1, w2, w1
    6774: 6e601c43     	bsl	v3.16b, v2.16b, v0.16b
    6778: 4ea58463     	add	v3.4s, v3.4s, v5.4s
    677c: 6ea34483     	ushl	v3.4s, v4.4s, v3.4s
    6780: 6e034064     	ext	v4.16b, v3.16b, v3.16b, #0x8
    6784: 0ea41c63     	orr	v3.8b, v3.8b, v4.8b
    6788: 9e660064     	fmov	x4, d3
    678c: 2a110091     	orr	w17, w4, w17
    6790: d360fc84     	lsr	x4, x4, #32
    6794: 2a010231     	orr	w17, w17, w1
    6798: 2a040231     	orr	w17, w17, w4
    679c: 2a110210     	orr	w16, w16, w17
    67a0: 14000020     	b	0x6820 <.text+0x5140>
    67a4: 7100055f     	cmp	w10, #0x1
    67a8: 540000a0     	b.eq	0x67bc <.text+0x50dc>
    67ac: 7100095f     	cmp	w10, #0x2
    67b0: 54000381     	b.ne	0x6820 <.text+0x5140>
    67b4: 4a100130     	eor	w16, w9, w16
    67b8: 1400001a     	b	0x6820 <.text+0x5140>
    67bc: 4b090210     	sub	w16, w16, w9
    67c0: 14000018     	b	0x6820 <.text+0x5140>
    67c4: 12001d31     	and	w17, w9, #0xff
    67c8: 373801a9     	tbnz	w9, #0x7, 0x67fc <.text+0x511c>
    67cc: 72000a3f     	tst	w17, #0x7
    67d0: 54000280     	b.eq	0x6820 <.text+0x5140>
    67d4: 4b0903f1     	neg	w17, w9
    67d8: 12000921     	and	w1, w9, #0x7
    67dc: 12000a31     	and	w17, w17, #0x7
    67e0: 1ac12601     	lsr	w1, w16, w1
    67e4: 1ad12210     	lsl	w16, w16, w17
    67e8: 2a100030     	orr	w16, w1, w16
    67ec: 1400000d     	b	0x6820 <.text+0x5140>
    67f0: 7100155f     	cmp	w10, #0x5
    67f4: 54000161     	b.ne	0x6820 <.text+0x5140>
    67f8: 14000114     	b	0x6c48 <.text+0x5568>
    67fc: 4b1103f1     	neg	w17, w17
    6800: 72000a3f     	tst	w17, #0x7
    6804: 540000e0     	b.eq	0x6820 <.text+0x5140>
    6808: 4b1103e1     	neg	w1, w17
    680c: 12000a31     	and	w17, w17, #0x7
    6810: 12000821     	and	w1, w1, #0x7
    6814: 1ad12211     	lsl	w17, w16, w17
    6818: 1ac12610     	lsr	w16, w16, w1
    681c: 2a100230     	orr	w16, w17, w16
    6820: 7100057f     	cmp	w11, #0x1
    6824: 38286990     	strb	w16, [x12, x8]
    6828: 5400014d     	b.le	0x6850 <.text+0x5170>
    682c: 7100097f     	cmp	w11, #0x2
    6830: 54fff580     	b.eq	0x66e0 <.text+0x5000>
    6834: 71000d7f     	cmp	w11, #0x3
    6838: 54000160     	b.eq	0x6864 <.text+0x5184>
    683c: 7100117f     	cmp	w11, #0x4
    6840: 540021a1     	b.ne	0x6c74 <.text+0x5594>
    6844: 53041d30     	ubfx	w16, w9, #4, #4
    6848: 2a091209     	orr	w9, w16, w9, lsl #4
    684c: 17ffffa6     	b	0x66e4 <.text+0x5004>
    6850: 34fff4ab     	cbz	w11, 0x66e4 <.text+0x5004>
    6854: 7100057f     	cmp	w11, #0x1
    6858: 540020e1     	b.ne	0x6c74 <.text+0x5594>
    685c: 11000529     	add	w9, w9, #0x1
    6860: 17ffffa1     	b	0x66e4 <.text+0x5004>
    6864: 5ac00129     	rbit	w9, w9
    6868: 53187d29     	lsr	w9, w9, #24
    686c: 17ffff9e     	b	0x66e4 <.text+0x5004>
    6870: 2945a80b     	ldp	w11, w10, [x0, #0x2c]
    6874: 3940a009     	ldrb	w9, [x0, #0x28]
    6878: aa1f03e8     	mov	x8, xzr
    687c: 910003ec     	mov	x12, sp
    6880: 528000ed     	mov	w13, #0x7               // =7
    6884: 128000ae     	mov	w14, #-0x6              // =-6
    6888: 5280004f     	mov	w15, #0x2               // =2
    688c: 14000005     	b	0x68a0 <.text+0x51c0>
    6890: 2a2903e9     	mvn	w9, w9
    6894: 91000508     	add	x8, x8, #0x1
    6898: f100691f     	cmp	x8, #0x1a
    689c: 54000c20     	b.eq	0x6a20 <.text+0x5340>
    68a0: 38686990     	ldrb	w16, [x12, x8]
    68a4: 7100095f     	cmp	w10, #0x2
    68a8: 5400056d     	b.le	0x6954 <.text+0x5274>
    68ac: 71000d5f     	cmp	w10, #0x3
    68b0: 54000620     	b.eq	0x6974 <.text+0x5294>
    68b4: 7100115f     	cmp	w10, #0x4
    68b8: 54000741     	b.ne	0x69a0 <.text+0x52c0>
    68bc: 72000931     	ands	w17, w9, #0x7
    68c0: 4e040e04     	dup	v4.4s, w16
    68c4: 53010602     	ubfx	w2, w16, #1, #1
    68c8: 72000921     	ands	w1, w9, #0x7
    68cc: 51000631     	sub	w17, w17, #0x1
    68d0: 53061a03     	ubfx	w3, w16, #6, #1
    68d4: 0e020c23     	dup	v3.4h, w1
    68d8: 4e040c25     	dup	v5.4s, w1
    68dc: 1a9101b1     	csel	w17, w13, w17, eq
    68e0: 6ea04484     	ushl	v4.4s, v4.4s, v0.4s
    68e4: 7100183f     	cmp	w1, #0x6
    68e8: 53077e05     	lsr	w5, w16, #7
    68ec: 1a8e31e4     	csel	w4, w15, w14, lo
    68f0: 71001c3f     	cmp	w1, #0x7
    68f4: 1ad12051     	lsl	w17, w2, w17
    68f8: 0b010084     	add	w4, w4, w1
    68fc: 1a8107e1     	csinc	w1, wzr, w1, eq
    6900: 12000210     	and	w16, w16, #0x1
    6904: 2e633423     	cmhi	v3.4h, v1.4h, v3.4h
    6908: 6f0717c4     	bic	v4.4s, #0xfe
    690c: 1ac42062     	lsl	w2, w3, w4
    6910: 1ac120a1     	lsl	w1, w5, w1
    6914: 92400923     	and	x3, x9, #0x7
    6918: 1ac32210     	lsl	w16, w16, w3
    691c: 0f10a463     	sshll	v3.4s, v3.4h, #0x0
    6920: 2a010041     	orr	w1, w2, w1
    6924: 6e601c43     	bsl	v3.16b, v2.16b, v0.16b
    6928: 4ea58463     	add	v3.4s, v3.4s, v5.4s
    692c: 6ea34483     	ushl	v3.4s, v4.4s, v3.4s
    6930: 6e034064     	ext	v4.16b, v3.16b, v3.16b, #0x8
    6934: 0ea41c63     	orr	v3.8b, v3.8b, v4.8b
    6938: 9e660064     	fmov	x4, d3
    693c: 2a110091     	orr	w17, w4, w17
    6940: d360fc84     	lsr	x4, x4, #32
    6944: 2a010231     	orr	w17, w17, w1
    6948: 2a040231     	orr	w17, w17, w4
    694c: 2a110210     	orr	w16, w16, w17
    6950: 14000020     	b	0x69d0 <.text+0x52f0>
    6954: 7100055f     	cmp	w10, #0x1
    6958: 540000a0     	b.eq	0x696c <.text+0x528c>
    695c: 7100095f     	cmp	w10, #0x2
    6960: 54000381     	b.ne	0x69d0 <.text+0x52f0>
    6964: 4a100130     	eor	w16, w9, w16
    6968: 1400001a     	b	0x69d0 <.text+0x52f0>
    696c: 4b090210     	sub	w16, w16, w9
    6970: 14000018     	b	0x69d0 <.text+0x52f0>
    6974: 12001d31     	and	w17, w9, #0xff
    6978: 373801a9     	tbnz	w9, #0x7, 0x69ac <.text+0x52cc>
    697c: 72000a3f     	tst	w17, #0x7
    6980: 54000280     	b.eq	0x69d0 <.text+0x52f0>
    6984: 4b0903f1     	neg	w17, w9
    6988: 12000921     	and	w1, w9, #0x7
    698c: 12000a31     	and	w17, w17, #0x7
    6990: 1ac12601     	lsr	w1, w16, w1
    6994: 1ad12210     	lsl	w16, w16, w17
    6998: 2a100030     	orr	w16, w1, w16
    699c: 1400000d     	b	0x69d0 <.text+0x52f0>
    69a0: 7100155f     	cmp	w10, #0x5
    69a4: 54000161     	b.ne	0x69d0 <.text+0x52f0>
    69a8: 140000be     	b	0x6ca0 <.text+0x55c0>
    69ac: 4b1103f1     	neg	w17, w17
    69b0: 72000a3f     	tst	w17, #0x7
    69b4: 540000e0     	b.eq	0x69d0 <.text+0x52f0>
    69b8: 4b1103e1     	neg	w1, w17
    69bc: 12000a31     	and	w17, w17, #0x7
    69c0: 12000821     	and	w1, w1, #0x7
    69c4: 1ad12211     	lsl	w17, w16, w17
    69c8: 1ac12610     	lsr	w16, w16, w1
    69cc: 2a100230     	orr	w16, w17, w16
    69d0: 7100057f     	cmp	w11, #0x1
    69d4: 38286990     	strb	w16, [x12, x8]
    69d8: 5400014d     	b.le	0x6a00 <.text+0x5320>
    69dc: 7100097f     	cmp	w11, #0x2
    69e0: 54fff580     	b.eq	0x6890 <.text+0x51b0>
    69e4: 71000d7f     	cmp	w11, #0x3
    69e8: 54000160     	b.eq	0x6a14 <.text+0x5334>
    69ec: 7100117f     	cmp	w11, #0x4
    69f0: 540016e1     	b.ne	0x6ccc <.text+0x55ec>
    69f4: 53041d30     	ubfx	w16, w9, #4, #4
    69f8: 2a091209     	orr	w9, w16, w9, lsl #4
    69fc: 17ffffa6     	b	0x6894 <.text+0x51b4>
    6a00: 34fff4ab     	cbz	w11, 0x6894 <.text+0x51b4>
    6a04: 7100057f     	cmp	w11, #0x1
    6a08: 54001621     	b.ne	0x6ccc <.text+0x55ec>
    6a0c: 11000529     	add	w9, w9, #0x1
    6a10: 17ffffa1     	b	0x6894 <.text+0x51b4>
    6a14: 5ac00129     	rbit	w9, w9
    6a18: 53187d29     	lsr	w9, w9, #24
    6a1c: 17ffff9e     	b	0x6894 <.text+0x51b4>
    6a20: 2944280b     	ldp	w11, w10, [x0, #0x20]
    6a24: 39407009     	ldrb	w9, [x0, #0x1c]
    6a28: aa1f03e8     	mov	x8, xzr
    6a2c: 910003ec     	mov	x12, sp
    6a30: 528000ed     	mov	w13, #0x7               // =7
    6a34: 128000ae     	mov	w14, #-0x6              // =-6
    6a38: 5280004f     	mov	w15, #0x2               // =2
    6a3c: 14000005     	b	0x6a50 <.text+0x5370>
    6a40: 2a2903e9     	mvn	w9, w9
    6a44: 91000508     	add	x8, x8, #0x1
    6a48: f100691f     	cmp	x8, #0x1a
    6a4c: 54000c20     	b.eq	0x6bd0 <.text+0x54f0>
    6a50: 38686990     	ldrb	w16, [x12, x8]
    6a54: 7100095f     	cmp	w10, #0x2
    6a58: 5400056d     	b.le	0x6b04 <.text+0x5424>
    6a5c: 71000d5f     	cmp	w10, #0x3
    6a60: 54000620     	b.eq	0x6b24 <.text+0x5444>
    6a64: 7100115f     	cmp	w10, #0x4
    6a68: 54000741     	b.ne	0x6b50 <.text+0x5470>
    6a6c: 72000931     	ands	w17, w9, #0x7
    6a70: 4e040e04     	dup	v4.4s, w16
    6a74: 53010602     	ubfx	w2, w16, #1, #1
    6a78: 72000921     	ands	w1, w9, #0x7
    6a7c: 51000631     	sub	w17, w17, #0x1
    6a80: 53061a03     	ubfx	w3, w16, #6, #1
    6a84: 0e020c23     	dup	v3.4h, w1
    6a88: 4e040c25     	dup	v5.4s, w1
    6a8c: 1a9101b1     	csel	w17, w13, w17, eq
    6a90: 6ea04484     	ushl	v4.4s, v4.4s, v0.4s
    6a94: 7100183f     	cmp	w1, #0x6
    6a98: 53077e05     	lsr	w5, w16, #7
    6a9c: 1a8e31e4     	csel	w4, w15, w14, lo
    6aa0: 71001c3f     	cmp	w1, #0x7
    6aa4: 1ad12051     	lsl	w17, w2, w17
    6aa8: 0b010084     	add	w4, w4, w1
    6aac: 1a8107e1     	csinc	w1, wzr, w1, eq
    6ab0: 12000210     	and	w16, w16, #0x1
    6ab4: 2e633423     	cmhi	v3.4h, v1.4h, v3.4h
    6ab8: 6f0717c4     	bic	v4.4s, #0xfe
    6abc: 1ac42062     	lsl	w2, w3, w4
    6ac0: 1ac120a1     	lsl	w1, w5, w1
    6ac4: 92400923     	and	x3, x9, #0x7
    6ac8: 1ac32210     	lsl	w16, w16, w3
    6acc: 0f10a463     	sshll	v3.4s, v3.4h, #0x0
    6ad0: 2a010041     	orr	w1, w2, w1
    6ad4: 6e601c43     	bsl	v3.16b, v2.16b, v0.16b
    6ad8: 4ea58463     	add	v3.4s, v3.4s, v5.4s
    6adc: 6ea34483     	ushl	v3.4s, v4.4s, v3.4s
    6ae0: 6e034064     	ext	v4.16b, v3.16b, v3.16b, #0x8
    6ae4: 0ea41c63     	orr	v3.8b, v3.8b, v4.8b
    6ae8: 9e660064     	fmov	x4, d3
    6aec: 2a110091     	orr	w17, w4, w17
    6af0: d360fc84     	lsr	x4, x4, #32
    6af4: 2a010231     	orr	w17, w17, w1
    6af8: 2a040231     	orr	w17, w17, w4
    6afc: 2a110210     	orr	w16, w16, w17
    6b00: 14000020     	b	0x6b80 <.text+0x54a0>
    6b04: 7100055f     	cmp	w10, #0x1
    6b08: 540000a0     	b.eq	0x6b1c <.text+0x543c>
    6b0c: 7100095f     	cmp	w10, #0x2
    6b10: 54000381     	b.ne	0x6b80 <.text+0x54a0>
    6b14: 4a100130     	eor	w16, w9, w16
    6b18: 1400001a     	b	0x6b80 <.text+0x54a0>
    6b1c: 4b090210     	sub	w16, w16, w9
    6b20: 14000018     	b	0x6b80 <.text+0x54a0>
    6b24: 12001d31     	and	w17, w9, #0xff
    6b28: 373801a9     	tbnz	w9, #0x7, 0x6b5c <.text+0x547c>
    6b2c: 72000a3f     	tst	w17, #0x7
    6b30: 54000280     	b.eq	0x6b80 <.text+0x54a0>
    6b34: 4b0903f1     	neg	w17, w9
    6b38: 12000921     	and	w1, w9, #0x7
    6b3c: 12000a31     	and	w17, w17, #0x7
    6b40: 1ac12601     	lsr	w1, w16, w1
    6b44: 1ad12210     	lsl	w16, w16, w17
    6b48: 2a100030     	orr	w16, w1, w16
    6b4c: 1400000d     	b	0x6b80 <.text+0x54a0>
    6b50: 7100155f     	cmp	w10, #0x5
    6b54: 54000161     	b.ne	0x6b80 <.text+0x54a0>
    6b58: 14000068     	b	0x6cf8 <.text+0x5618>
    6b5c: 4b1103f1     	neg	w17, w17
    6b60: 72000a3f     	tst	w17, #0x7
    6b64: 540000e0     	b.eq	0x6b80 <.text+0x54a0>
    6b68: 4b1103e1     	neg	w1, w17
    6b6c: 12000a31     	and	w17, w17, #0x7
    6b70: 12000821     	and	w1, w1, #0x7
    6b74: 1ad12211     	lsl	w17, w16, w17
    6b78: 1ac12610     	lsr	w16, w16, w1
    6b7c: 2a100230     	orr	w16, w17, w16
    6b80: 7100057f     	cmp	w11, #0x1
    6b84: 38286990     	strb	w16, [x12, x8]
    6b88: 5400014d     	b.le	0x6bb0 <.text+0x54d0>
    6b8c: 7100097f     	cmp	w11, #0x2
    6b90: 54fff580     	b.eq	0x6a40 <.text+0x5360>
    6b94: 71000d7f     	cmp	w11, #0x3
    6b98: 54000160     	b.eq	0x6bc4 <.text+0x54e4>
    6b9c: 7100117f     	cmp	w11, #0x4
    6ba0: 54000c21     	b.ne	0x6d24 <.text+0x5644>
    6ba4: 53041d30     	ubfx	w16, w9, #4, #4
    6ba8: 2a091209     	orr	w9, w16, w9, lsl #4
    6bac: 17ffffa6     	b	0x6a44 <.text+0x5364>
    6bb0: 34fff4ab     	cbz	w11, 0x6a44 <.text+0x5364>
    6bb4: 7100057f     	cmp	w11, #0x1
    6bb8: 54000b61     	b.ne	0x6d24 <.text+0x5644>
    6bbc: 11000529     	add	w9, w9, #0x1
    6bc0: 17ffffa1     	b	0x6a44 <.text+0x5364>
    6bc4: 5ac00129     	rbit	w9, w9
    6bc8: 53187d29     	lsr	w9, w9, #24
    6bcc: 17ffff9e     	b	0x6a44 <.text+0x5364>
    6bd0: 3dc003e0     	ldr	q0, [sp]
    6bd4: 3cc0a3e1     	ldur	q1, [sp, #0xa]
    6bd8: 3901301f     	strb	wzr, [x0, #0x4c]
    6bdc: 3d800000     	str	q0, [x0]
    6be0: 3c80a001     	stur	q1, [x0, #0xa]
    6be4: a9427bfd     	ldp	x29, x30, [sp, #0x20]
    6be8: 9100c3ff     	add	sp, sp, #0x30
    6bec: d65f03c0     	ret
    6bf0: 52800100     	mov	w0, #0x8                // =8
    6bf4: 9400007b     	bl	0x6de0 <__cxa_allocate_exception@plt>
    6bf8: b0000028     	adrp	x8, 0xb000
    6bfc: f9405908     	ldr	x8, [x8, #0xb0]
    6c00: 91004108     	add	x8, x8, #0x10
    6c04: f9000008     	str	x8, [x0]
    6c08: b0000021     	adrp	x1, 0xb000
    6c0c: b0000022     	adrp	x2, 0xb000
    6c10: f9405421     	ldr	x1, [x1, #0xa8]
    6c14: f9404c42     	ldr	x2, [x2, #0x98]
    6c18: 94000076     	bl	0x6df0 <__cxa_throw@plt>
    6c1c: 52800100     	mov	w0, #0x8                // =8
    6c20: 94000070     	bl	0x6de0 <__cxa_allocate_exception@plt>
    6c24: b0000028     	adrp	x8, 0xb000
    6c28: f9405908     	ldr	x8, [x8, #0xb0]
    6c2c: 91004108     	add	x8, x8, #0x10
    6c30: f9000008     	str	x8, [x0]
    6c34: b0000021     	adrp	x1, 0xb000
    6c38: b0000022     	adrp	x2, 0xb000
    6c3c: f9405421     	ldr	x1, [x1, #0xa8]
    6c40: f9404c42     	ldr	x2, [x2, #0x98]
    6c44: 9400006b     	bl	0x6df0 <__cxa_throw@plt>
    6c48: 52800100     	mov	w0, #0x8                // =8
    6c4c: 94000065     	bl	0x6de0 <__cxa_allocate_exception@plt>
    6c50: b0000028     	adrp	x8, 0xb000
    6c54: f9405908     	ldr	x8, [x8, #0xb0]
    6c58: 91004108     	add	x8, x8, #0x10
    6c5c: f9000008     	str	x8, [x0]
    6c60: b0000021     	adrp	x1, 0xb000
    6c64: b0000022     	adrp	x2, 0xb000
    6c68: f9405421     	ldr	x1, [x1, #0xa8]
    6c6c: f9404c42     	ldr	x2, [x2, #0x98]
    6c70: 94000060     	bl	0x6df0 <__cxa_throw@plt>
    6c74: 52800100     	mov	w0, #0x8                // =8
    6c78: 9400005a     	bl	0x6de0 <__cxa_allocate_exception@plt>
    6c7c: b0000028     	adrp	x8, 0xb000
    6c80: f9405908     	ldr	x8, [x8, #0xb0]
    6c84: 91004108     	add	x8, x8, #0x10
    6c88: f9000008     	str	x8, [x0]
    6c8c: b0000021     	adrp	x1, 0xb000
    6c90: b0000022     	adrp	x2, 0xb000
    6c94: f9405421     	ldr	x1, [x1, #0xa8]
    6c98: f9404c42     	ldr	x2, [x2, #0x98]
    6c9c: 94000055     	bl	0x6df0 <__cxa_throw@plt>
    6ca0: 52800100     	mov	w0, #0x8                // =8
    6ca4: 9400004f     	bl	0x6de0 <__cxa_allocate_exception@plt>
    6ca8: b0000028     	adrp	x8, 0xb000
    6cac: f9405908     	ldr	x8, [x8, #0xb0]
    6cb0: 91004108     	add	x8, x8, #0x10
    6cb4: f9000008     	str	x8, [x0]
    6cb8: b0000021     	adrp	x1, 0xb000
    6cbc: b0000022     	adrp	x2, 0xb000
    6cc0: f9405421     	ldr	x1, [x1, #0xa8]
    6cc4: f9404c42     	ldr	x2, [x2, #0x98]
    6cc8: 9400004a     	bl	0x6df0 <__cxa_throw@plt>
    6ccc: 52800100     	mov	w0, #0x8                // =8
    6cd0: 94000044     	bl	0x6de0 <__cxa_allocate_exception@plt>
    6cd4: b0000028     	adrp	x8, 0xb000
    6cd8: f9405908     	ldr	x8, [x8, #0xb0]
    6cdc: 91004108     	add	x8, x8, #0x10
    6ce0: f9000008     	str	x8, [x0]
    6ce4: b0000021     	adrp	x1, 0xb000
    6ce8: b0000022     	adrp	x2, 0xb000
    6cec: f9405421     	ldr	x1, [x1, #0xa8]
    6cf0: f9404c42     	ldr	x2, [x2, #0x98]
    6cf4: 9400003f     	bl	0x6df0 <__cxa_throw@plt>
    6cf8: 52800100     	mov	w0, #0x8                // =8
    6cfc: 94000039     	bl	0x6de0 <__cxa_allocate_exception@plt>
    6d00: b0000028     	adrp	x8, 0xb000
    6d04: f9405908     	ldr	x8, [x8, #0xb0]
    6d08: 91004108     	add	x8, x8, #0x10
    6d0c: f9000008     	str	x8, [x0]
    6d10: b0000021     	adrp	x1, 0xb000
    6d14: b0000022     	adrp	x2, 0xb000
    6d18: f9405421     	ldr	x1, [x1, #0xa8]
    6d1c: f9404c42     	ldr	x2, [x2, #0x98]
    6d20: 94000034     	bl	0x6df0 <__cxa_throw@plt>
    6d24: 52800100     	mov	w0, #0x8                // =8
    6d28: 9400002e     	bl	0x6de0 <__cxa_allocate_exception@plt>
    6d2c: b0000028     	adrp	x8, 0xb000
    6d30: f9405908     	ldr	x8, [x8, #0xb0]
    6d34: 91004108     	add	x8, x8, #0x10
    6d38: f9000008     	str	x8, [x0]
    6d3c: b0000021     	adrp	x1, 0xb000
    6d40: b0000022     	adrp	x2, 0xb000
    6d44: f9405421     	ldr	x1, [x1, #0xa8]
    6d48: f9404c42     	ldr	x2, [x2, #0x98]
    6d4c: 94000029     	bl	0x6df0 <__cxa_throw@plt>
    6d50: 97fffa61     	bl	0x56d4 <.text+0x3ff4>
    6d54: 97fffa60     	bl	0x56d4 <.text+0x3ff4>
    6d58: 97fffa5f     	bl	0x56d4 <.text+0x3ff4>
    6d5c: 97fffa5e     	bl	0x56d4 <.text+0x3ff4>
    6d60: 97fffa5d     	bl	0x56d4 <.text+0x3ff4>
    6d64: 97fffa5c     	bl	0x56d4 <.text+0x3ff4>
    6d68: 97fffa5b     	bl	0x56d4 <.text+0x3ff4>
    6d6c: 97fffa5a     	bl	0x56d4 <.text+0x3ff4>

Disassembly of section .plt:

0000000000006d70 <.plt>:
    6d70: a9bf7bf0     	stp	x16, x30, [sp, #-0x10]!
    6d74: b0000030     	adrp	x16, 0xb000
    6d78: f9406a11     	ldr	x17, [x16, #0xd0]
    6d7c: 91034210     	add	x16, x16, #0xd0
    6d80: d61f0220     	br	x17
    6d84: d503201f     	nop
    6d88: d503201f     	nop
    6d8c: d503201f     	nop

0000000000006d90 <__libc_init@plt>:
    6d90: b0000030     	adrp	x16, 0xb000
    6d94: f9406e11     	ldr	x17, [x16, #0xd8]
    6d98: 91036210     	add	x16, x16, #0xd8
    6d9c: d61f0220     	br	x17

0000000000006da0 <__cxa_atexit@plt>:
    6da0: b0000030     	adrp	x16, 0xb000
    6da4: f9407211     	ldr	x17, [x16, #0xe0]
    6da8: 91038210     	add	x16, x16, #0xe0
    6dac: d61f0220     	br	x17

0000000000006db0 <__register_atfork@plt>:
    6db0: b0000030     	adrp	x16, 0xb000
    6db4: f9407611     	ldr	x17, [x16, #0xe8]
    6db8: 9103a210     	add	x16, x16, #0xe8
    6dbc: d61f0220     	br	x17

0000000000006dc0 <__cxa_begin_catch@plt>:
    6dc0: b0000030     	adrp	x16, 0xb000
    6dc4: f9407a11     	ldr	x17, [x16, #0xf0]
    6dc8: 9103c210     	add	x16, x16, #0xf0
    6dcc: d61f0220     	br	x17

0000000000006dd0 <_ZSt9terminatev@plt>:
    6dd0: b0000030     	adrp	x16, 0xb000
    6dd4: f9407e11     	ldr	x17, [x16, #0xf8]
    6dd8: 9103e210     	add	x16, x16, #0xf8
    6ddc: d61f0220     	br	x17

0000000000006de0 <__cxa_allocate_exception@plt>:
    6de0: b0000030     	adrp	x16, 0xb000
    6de4: f9408211     	ldr	x17, [x16, #0x100]
    6de8: 91040210     	add	x16, x16, #0x100
    6dec: d61f0220     	br	x17

0000000000006df0 <__cxa_throw@plt>:
    6df0: b0000030     	adrp	x16, 0xb000
    6df4: f9408611     	ldr	x17, [x16, #0x108]
    6df8: 91042210     	add	x16, x16, #0x108
    6dfc: d61f0220     	br	x17

0000000000006e00 <_ZNSt6__ndk113basic_ostreamIcNS_11char_traitsIcEEE6sentryC1ERS3_@plt>:
    6e00: b0000030     	adrp	x16, 0xb000
    6e04: f9408a11     	ldr	x17, [x16, #0x110]
    6e08: 91044210     	add	x16, x16, #0x110
    6e0c: d61f0220     	br	x17

0000000000006e10 <_ZNSt6__ndk113basic_ostreamIcNS_11char_traitsIcEEE6sentryD1Ev@plt>:
    6e10: b0000030     	adrp	x16, 0xb000
    6e14: f9408e11     	ldr	x17, [x16, #0x118]
    6e18: 91046210     	add	x16, x16, #0x118
    6e1c: d61f0220     	br	x17

0000000000006e20 <_ZNSt6__ndk18ios_base33__set_badbit_and_consider_rethrowEv@plt>:
    6e20: b0000030     	adrp	x16, 0xb000
    6e24: f9409211     	ldr	x17, [x16, #0x120]
    6e28: 91048210     	add	x16, x16, #0x120
    6e2c: d61f0220     	br	x17

0000000000006e30 <__cxa_end_catch@plt>:
    6e30: b0000030     	adrp	x16, 0xb000
    6e34: f9409611     	ldr	x17, [x16, #0x128]
    6e38: 9104a210     	add	x16, x16, #0x128
    6e3c: d61f0220     	br	x17

0000000000006e40 <_Znwm@plt>:
    6e40: b0000030     	adrp	x16, 0xb000
    6e44: f9409a11     	ldr	x17, [x16, #0x130]
    6e48: 9104c210     	add	x16, x16, #0x130
    6e4c: d61f0220     	br	x17

0000000000006e50 <_ZdlPvm@plt>:
    6e50: b0000030     	adrp	x16, 0xb000
    6e54: f9409e11     	ldr	x17, [x16, #0x138]
    6e58: 9104e210     	add	x16, x16, #0x138
    6e5c: d61f0220     	br	x17

0000000000006e60 <_ZNKSt6__ndk18ios_base6getlocEv@plt>:
    6e60: b0000030     	adrp	x16, 0xb000
    6e64: f940a211     	ldr	x17, [x16, #0x140]
    6e68: 91050210     	add	x16, x16, #0x140
    6e6c: d61f0220     	br	x17

0000000000006e70 <_ZNSt6__ndk16localeD1Ev@plt>:
    6e70: b0000030     	adrp	x16, 0xb000
    6e74: f940a611     	ldr	x17, [x16, #0x148]
    6e78: 91052210     	add	x16, x16, #0x148
    6e7c: d61f0220     	br	x17

0000000000006e80 <_ZNKSt6__ndk16locale9use_facetERNS0_2idE@plt>:
    6e80: b0000030     	adrp	x16, 0xb000
    6e84: f940aa11     	ldr	x17, [x16, #0x150]
    6e88: 91054210     	add	x16, x16, #0x150
    6e8c: d61f0220     	br	x17

0000000000006e90 <_ZNSt6__ndk18ios_base5clearEj@plt>:
    6e90: b0000030     	adrp	x16, 0xb000
    6e94: f940ae11     	ldr	x17, [x16, #0x158]
    6e98: 91056210     	add	x16, x16, #0x158
    6e9c: d61f0220     	br	x17

0000000000006ea0 <strlen@plt>:
    6ea0: b0000030     	adrp	x16, 0xb000
    6ea4: f940b211     	ldr	x17, [x16, #0x160]
    6ea8: 91058210     	add	x16, x16, #0x160
    6eac: d61f0220     	br	x17

0000000000006eb0 <_ZNSt6__ndk113basic_ostreamIcNS_11char_traitsIcEEE3putEc@plt>:
    6eb0: b0000030     	adrp	x16, 0xb000
    6eb4: f940b611     	ldr	x17, [x16, #0x168]
    6eb8: 9105a210     	add	x16, x16, #0x168
    6ebc: d61f0220     	br	x17

0000000000006ec0 <_ZNSt6__ndk113basic_ostreamIcNS_11char_traitsIcEEE5flushEv@plt>:
    6ec0: b0000030     	adrp	x16, 0xb000
    6ec4: f940ba11     	ldr	x17, [x16, #0x170]
    6ec8: 9105c210     	add	x16, x16, #0x170
    6ecc: d61f0220     	br	x17

0000000000006ed0 <_Unwind_Resume@plt>:
    6ed0: b0000030     	adrp	x16, 0xb000
    6ed4: f940be11     	ldr	x17, [x16, #0x178]
    6ed8: 9105e210     	add	x16, x16, #0x178
    6edc: d61f0220     	br	x17

0000000000006ee0 <memset@plt>:
    6ee0: b0000030     	adrp	x16, 0xb000
    6ee4: f940c211     	ldr	x17, [x16, #0x180]
    6ee8: 91060210     	add	x16, x16, #0x180
    6eec: d61f0220     	br	x17

Disassembly of section .dynamic:

000000000000aef0 <.dynamic>:
    aef0: 0000001d     	udf	#0x1d
    aef4: 00000000     	udf	#0x0
    aef8: 000002e7     	udf	#0x2e7
    aefc: 00000000     	udf	#0x0
    af00: 00000001     	udf	#0x1
    af04: 00000000     	udf	#0x0
    af08: 00000319     	udf	#0x319
    af0c: 00000000     	udf	#0x0
    af10: 00000001     	udf	#0x1
    af14: 00000000     	udf	#0x0
    af18: 0000032a     	udf	#0x32a
    af1c: 00000000     	udf	#0x0
    af20: 00000001     	udf	#0x1
    af24: 00000000     	udf	#0x0
    af28: 00000333     	udf	#0x333
    af2c: 00000000     	udf	#0x0
    af30: 00000001     	udf	#0x1
    af34: 00000000     	udf	#0x0
    af38: 000002d3     	udf	#0x2d3
    af3c: 00000000     	udf	#0x0
    af40: 0000001e     	udf	#0x1e
    af44: 00000000     	udf	#0x0
    af48: 00000008     	udf	#0x8
    af4c: 00000000     	udf	#0x0
    af50: 6ffffffb     	<unknown>
    af54: 00000000     	udf	#0x0
    af58: 08000001     	stxrb	w0, w1, [x0]
    af5c: 00000000     	udf	#0x0
    af60: 00000015     	udf	#0x15
		...
    af70: 00000007     	udf	#0x7
    af74: 00000000     	udf	#0x0
    af78: 000009a0     	udf	#0x9a0
    af7c: 00000000     	udf	#0x0
    af80: 00000008     	udf	#0x8
    af84: 00000000     	udf	#0x0
    af88: 000000f0     	udf	#0xf0
    af8c: 00000000     	udf	#0x0
    af90: 00000009     	udf	#0x9
    af94: 00000000     	udf	#0x0
    af98: 00000018     	udf	#0x18
    af9c: 00000000     	udf	#0x0
    afa0: 6ffffff9     	<unknown>
    afa4: 00000000     	udf	#0x0
    afa8: 00000004     	udf	#0x4
    afac: 00000000     	udf	#0x0
    afb0: 00000017     	udf	#0x17
    afb4: 00000000     	udf	#0x0
    afb8: 00000a90     	udf	#0xa90
    afbc: 00000000     	udf	#0x0
    afc0: 00000002     	udf	#0x2
    afc4: 00000000     	udf	#0x0
    afc8: 00000210     	udf	#0x210
    afcc: 00000000     	udf	#0x0
    afd0: 00000003     	udf	#0x3
    afd4: 00000000     	udf	#0x0
    afd8: 0000b0c0     	udf	#0xb0c0
    afdc: 00000000     	udf	#0x0
    afe0: 00000014     	udf	#0x14
    afe4: 00000000     	udf	#0x0
    afe8: 00000007     	udf	#0x7
    afec: 00000000     	udf	#0x0
    aff0: 00000006     	udf	#0x6
    aff4: 00000000     	udf	#0x0
    aff8: 00000320     	udf	#0x320
    affc: 00000000     	udf	#0x0
    b000: 0000000b     	udf	#0xb
    b004: 00000000     	udf	#0x0
    b008: 00000018     	udf	#0x18
    b00c: 00000000     	udf	#0x0
    b010: 00000005     	udf	#0x5
    b014: 00000000     	udf	#0x0
    b018: 00000664     	udf	#0x664
    b01c: 00000000     	udf	#0x0
    b020: 0000000a     	udf	#0xa
    b024: 00000000     	udf	#0x0
    b028: 0000033b     	udf	#0x33b
    b02c: 00000000     	udf	#0x0
    b030: 6ffffef5     	<unknown>
    b034: 00000000     	udf	#0x0
    b038: 00000648     	udf	#0x648
    b03c: 00000000     	udf	#0x0
    b040: 6ffffff0     	<unknown>
    b044: 00000000     	udf	#0x0
    b048: 000005d8     	udf	#0x5d8
    b04c: 00000000     	udf	#0x0
    b050: 6ffffffe     	<unknown>
    b054: 00000000     	udf	#0x0
    b058: 00000614     	udf	#0x614
    b05c: 00000000     	udf	#0x0
    b060: 6fffffff     	<unknown>
    b064: 00000000     	udf	#0x0
    b068: 00000001     	udf	#0x1
		...

Disassembly of section .got:

000000000000b080 <.got>:
		...

Disassembly of section .got.plt:

000000000000b0c0 <.got.plt>:
		...
    b0d8: 00006d70     	udf	#0x6d70
    b0dc: 00000000     	udf	#0x0
    b0e0: 00006d70     	udf	#0x6d70
    b0e4: 00000000     	udf	#0x0
    b0e8: 00006d70     	udf	#0x6d70
    b0ec: 00000000     	udf	#0x0
    b0f0: 00006d70     	udf	#0x6d70
    b0f4: 00000000     	udf	#0x0
    b0f8: 00006d70     	udf	#0x6d70
    b0fc: 00000000     	udf	#0x0
    b100: 00006d70     	udf	#0x6d70
    b104: 00000000     	udf	#0x0
    b108: 00006d70     	udf	#0x6d70
    b10c: 00000000     	udf	#0x0
    b110: 00006d70     	udf	#0x6d70
    b114: 00000000     	udf	#0x0
    b118: 00006d70     	udf	#0x6d70
    b11c: 00000000     	udf	#0x0
    b120: 00006d70     	udf	#0x6d70
    b124: 00000000     	udf	#0x0
    b128: 00006d70     	udf	#0x6d70
    b12c: 00000000     	udf	#0x0
    b130: 00006d70     	udf	#0x6d70
    b134: 00000000     	udf	#0x0
    b138: 00006d70     	udf	#0x6d70
    b13c: 00000000     	udf	#0x0
    b140: 00006d70     	udf	#0x6d70
    b144: 00000000     	udf	#0x0
    b148: 00006d70     	udf	#0x6d70
    b14c: 00000000     	udf	#0x0
    b150: 00006d70     	udf	#0x6d70
    b154: 00000000     	udf	#0x0
    b158: 00006d70     	udf	#0x6d70
    b15c: 00000000     	udf	#0x0
    b160: 00006d70     	udf	#0x6d70
    b164: 00000000     	udf	#0x0
    b168: 00006d70     	udf	#0x6d70
    b16c: 00000000     	udf	#0x0
    b170: 00006d70     	udf	#0x6d70
    b174: 00000000     	udf	#0x0
    b178: 00006d70     	udf	#0x6d70
    b17c: 00000000     	udf	#0x0
    b180: 00006d70     	udf	#0x6d70
    b184: 00000000     	udf	#0x0

Disassembly of section .relro_padding:

000000000000b188 <.relro_padding>:
...

Disassembly of section .data:

000000000000f188 <.data>:
    f188: ffffffff     	<unknown>
    f18c: ffffffff     	<unknown>
		...

Disassembly of section .bss:

000000000000f1a8 <.bss>:
...

Disassembly of section .comment:

0000000000000000 <.comment>:
       0: 72646e41     	<unknown>
       4: 2064696f     	<unknown>
       8: 39333128     	strb	w8, [x9, #0xccc]
       c: 38383938     	<unknown>
      10: 2b202c38     	adds	w24, w1, w0, uxth #3
      14: 2c6f6770     	ldnp	s16, s25, [x27, #-0x88]
      18: 6f622b20     	umlal2	v0.4s, v25.8h, v2.h[6]
      1c: 202c746c     	<unknown>
      20: 6f746c2b     	<unknown>
      24: 6d2b202c     	stp	d12, d8, [x1, #-0x150]
      28: 2c6f676c     	ldnp	s12, s25, [x27, #-0x88]
      2c: 73616220     	<unknown>
      30: 6f206465     	sqshlu	v5.4s, v3.4s, #0x0
      34: 3572206e     	cbnz	w14, 0xe4440 <.bss+0xd5298>
      38: 38383336     	ldsetb	w24, w22, [x25]
      3c: 20296330     	<unknown>
      40: 6e616c63     	umin	v3.8h, v3.8h, v1.8h
      44: 65762067     	fmls	z7.h, p0/m, z3.h, z22.h
      48: 6f697372     	fcmla	v18.8h, v27.8h, v9.h[1], #270
      4c: 3132206e     	adds	w14, w3, #0xc88
      50: 302e302e     	adr	x14, 0x5c655 <.bss+0x4d4ad>
      54: 74682820     	cbhs	w0, w8, 0xfffffffffffffd58 <.bss+0xffffffffffff0bb0>
      58: 3a737074     	<unknown>
      5c: 6e612f2f     	uqsub	v15.8h, v25.8h, v1.8h
      60: 696f7264     	ldpsw	x4, x28, [x19, #-0x88]
      64: 6f672e64     	<unknown>
      68: 656c676f     	fnmls	z15.h, p1/m, z27.h, z12.h
      6c: 72756f73     	<unknown>
      70: 632e6563     	<unknown>
      74: 742f6d6f     	<unknown>
      78: 636c6f6f     	<unknown>
      7c: 6e696168     	rsubhn2	v8.8h, v11.4s, v9.4s
      80: 766c6c2f     	<unknown>
      84: 72702d6d     	<unknown>
      88: 63656a6f     	<unknown>
      8c: 65352074     	bfmls	z20.h, p0/m, z3.h, z21.h
      90: 36363639     	tbz	w25, #0x6, 0xffffffffffffc754 <.bss+0xfffffffffffed5ac>
      94: 36306639     	tbz	w25, #0x6, 0xd58 <.rodata+0xb8>
      98: 30373730     	adr	x16, 0x6e77d <.bss+0x5f5d5>
      9c: 61613939     	<unknown>
      a0: 39323134     	strb	w20, [x9, #0xc8c]
      a4: 62646330     	<unknown>
      a8: 65356334     	<unknown>
      ac: 30616636     	adr	x22, 0xc2d71 <.bss+0xb3bc9>
      b0: 33393566     	<unknown>
      b4: 00293934     	<unknown>
      b8: 6e694c00     	uqshl	v0.8h, v0.8h, v9.8h
      bc: 3a72656b     	<unknown>
      c0: 444c4c20     	umlalt	z0.h, z1.b, z12.b
      c4: 2e313220     	usubw	v0.8h, v17.8h, v17.8b
      c8: 00382e31     	<unknown>
      cc: 6e616c63     	umin	v3.8h, v3.8h, v1.8h
      d0: 65762067     	fmls	z7.h, p0/m, z3.h, z22.h
      d4: 6f697372     	fcmla	v18.8h, v27.8h, v9.h[1], #270
      d8: 3132206e     	adds	w14, w3, #0xc88
      dc: 382e312e     	ldsetb	w14, w14, [x9]
      e0: 00           	<unknown>

Disassembly of section .shstrtab:

0000000000000000 <.shstrtab>:
       0: 6e692e00     	uqsub	v0.8h, v16.8h, v9.8h
       4: 70726574     	adr	x20, 0xe4cb3 <.bss+0xd5b0b>
       8: 6f6e2e00     	<unknown>
       c: 612e6574     	<unknown>
      10: 6f72646e     	sqshlu	v14.2d, v3.2d, #0x32
      14: 692e6469     	stgp	x9, x25, [x3, #-0x240]
      18: 746e6564     	<unknown>
      1c: 79642e00     	ldrh	w0, [x16, #0x1216]
      20: 6d79736e     	ldp	d14, d28, [x27, #-0x70]
      24: 6e672e00     	uqsub	v0.8h, v16.8h, v7.8h
      28: 65762e75     	fmls	z21.h, p3/m, z19.h, z22.h
      2c: 6f697372     	fcmla	v18.8h, v27.8h, v9.h[1], #270
      30: 672e006e     	<unknown>
      34: 762e756e     	<unknown>
      38: 69737265     	ldpsw	x5, x28, [x19, #-0x68]
      3c: 725f6e6f     	<unknown>
      40: 6e672e00     	uqsub	v0.8h, v16.8h, v7.8h
      44: 61682e75     	<unknown>
      48: 2e006873     	<unknown>
      4c: 736e7964     	<unknown>
      50: 2e007274     	<unknown>
      54: 616c6572     	<unknown>
      58: 6e79642e     	umax	v14.8h, v1.8h, v25.8h
      5c: 65722e00     	fmls	z0.h, p3/m, z16.h, z18.h
      60: 702e616c     	adr	x12, 0x5cc8f <.bss+0x4dae7>
      64: 2e00746c     	<unknown>
      68: 61646f72     	<unknown>
      6c: 2e006174     	<unknown>
      70: 5f636367     	<unknown>
      74: 65637865     	fnmls	z5.h, p6/m, z3.h, z3.h
      78: 745f7470     	<unknown>
      7c: 656c6261     	fnmls	z1.h, p0/m, z19.h, z12.h
      80: 68652e00     	<unknown>
      84: 6172665f     	<unknown>
      88: 685f656d     	<unknown>
      8c: 2e007264     	<unknown>
      90: 665f6865     	<unknown>
      94: 656d6172     	fnmls	z18.h, p0/m, z11.h, z13.h
      98: 65742e00     	fmls	z0.h, p3/m, z16.h, z20.h
      9c: 2e007478     	<unknown>
      a0: 00746c70     	<unknown>
      a4: 6e79642e     	umax	v14.8h, v1.8h, v25.8h
      a8: 63696d61     	<unknown>
      ac: 6f672e00     	<unknown>
      b0: 672e0074     	<unknown>
      b4: 702e746f     	adr	x15, 0x5cf43 <.bss+0x4dd9b>
      b8: 2e00746c     	<unknown>
      bc: 726c6572     	<unknown>
      c0: 61705f6f     	<unknown>
      c4: 6e696464     	umax	v4.8h, v3.8h, v9.8h
      c8: 642e0067     	fmla	z7.h, z3.h, z6.h[1]
      cc: 00617461     	<unknown>
      d0: 7373622e     	<unknown>
      d4: 6f632e00     	<unknown>
      d8: 6e656d6d     	umin	v13.8h, v11.8h, v5.8h
      dc: 732e0074     	<unknown>
      e0: 72747368     	<unknown>
      e4: 00626174     	<unknown>
